(lp0
(I0
Vthe
p1
tp2
a(I1
Vand
p3
tp4
a(I2
Vfor
p5
tp6
a(I3
Vwas
p7
tp8
a(I4
Vare
p9
tp10
a(I5
Vbut
p11
tp12
a(I6
Vnot
p13
tp14
a(I7
Vall
p15
tp16
a(I8
Vhis
p17
tp18
a(I9
Vone
p19
tp20
a(I10
Vhas
p21
tp22
a(I11
Vwho
p23
tp24
a(I12
Vout
p25
tp26
a(I13
Vcan
p27
tp28
a(I14
Vhad
p29
tp30
a(I15
Vget
p31
tp32
a(I16
Vshe
p33
tp34
a(I17
Vher
p35
tp36
a(I18
Vhow
p37
tp38
a(I19
Vnew
p39
tp40
a(I20
Vdid
p41
tp42
a(I21
Vnow
p43
tp44
a(I22
Vour
p45
tp46
a(I23
Vsee
p47
tp48
a(I24
Vits
p49
tp50
a(I25
Vgot
p51
tp52
a(I26
Vhim
p53
tp54
a(I27
Vtwo
p55
tp56
a(I28
Voff
p57
tp58
a(I29
Vtoo
p59
tp60
a(I30
Vlet
p61
tp62
a(I31
Vbig
p63
tp64
a(I32
Vfew
p65
tp66
a(I33
Vown
p67
tp68
a(I34
Vlot
p69
tp70
a(I35
Vend
p71
tp72
a(I36
Vuse
p73
tp74
a(I37
Vman
p75
tp76
a(I38
Vput
p77
tp78
a(I39
Vold
p79
tp80
a(I40
Vlol
p81
tp82
a(I41
Vfun
p83
tp84
a(I42
Vbad
p85
tp86
a(I43
Vset
p87
tp88
a(I44
Vrun
p89
tp90
a(I45
Vago
p91
tp92
a(I46
Vwin
p93
tp94
a(I47
Vjob
p95
tp96
a(I48
Vbit
p97
tp98
a(I49
Vfar
p99
tp100
a(I50
Vgod
p101
tp102
a(I51
Vtop
p103
tp104
a(I52
Vsaw
p105
tp106
a(I53
Vadd
p107
tp108
a(I54
Vgon
p109
tp110
a(I55
Vask
p111
tp112
a(I56
Veat
p113
tp114
a(I57
Vhit
p115
tp116
a(I58
Vcar
p117
tp118
a(I59
Vsan
p119
tp120
a(I60
Vred
p121
tp122
a(I61
Vson
p123
tp124
a(I62
Vsix
p125
tp126
a(I63
Vhot
p127
tp128
a(I64
Vcut
p129
tp130
a(I65
Vlaw
p131
tp132
a(I66
Vmom
p133
tp134
a(I67
Vper
p135
tp136
a(I68
Vart
p137
tp138
a(I69
Vmen
p139
tp140
a(I70
Vbed
p141
tp142
a(I71
Vdog
p143
tp144
a(I72
Vact
p145
tp146
a(I73
Voil
p147
tp148
a(I74
Vtax
p149
tp150
a(I75
Vage
p151
tp152
a(I76
Vlow
p153
tp154
a(I77
Vwon
p155
tp156
a(I78
Vair
p157
tp158
a(I79
Vdue
p159
tp160
a(I80
Vled
p161
tp162
a(I81
Vbar
p163
tp164
a(I82
Vass
p165
tp166
a(I83
Vmet
p167
tp168
a(I84
Vbox
p169
tp170
a(I85
Vfan
p171
tp172
a(I86
Vill
p173
tp174
a(I87
Vsad
p175
tp176
a(I88
Vwar
p177
tp178
a(I89
Vice
p179
tp180
a(I90
Vsun
p181
tp182
a(I91
Vwan
p183
tp184
a(I92
Vdad
p185
tp186
a(I93
Vbro
p187
tp188
a(I94
Vcat
p189
tp190
a(I95
Vsex
p191
tp192
a(I96
Vwww
p193
tp194
a(I97
Vsea
p195
tp196
a(I98
Vbag
p197
tp198
a(I99
Vmix
p199
tp200
a(I100
Vkid
p201
tp202
a(I101
Vnfl
p203
tp204
a(I102
Vbus
p205
tp206
a(I103
Vfit
p207
tp208
a(I104
Vcup
p209
tp210
a(I105
Vsit
p211
tp212
a(I106
Vnba
p213
tp214
a(I107
Vlil
p215
tp216
a(I108
Vate
p217
tp218
a(I109
Vcom
p219
tp220
a(I110
Vdie
p221
tp222
a(I111
Vjoe
p223
tp224
a(I112
Vsat
p225
tp226
a(I113
Vgas
p227
tp228
a(I114
Vlos
p229
tp230
a(I115
Vweb
p231
tp232
a(I116
Vlie
p233
tp234
a(I117
Varm
p235
tp236
a(I118
Vten
p237
tp238
a(I119
Vran
p239
tp240
a(I120
Vtom
p241
tp242
a(I121
Vjim
p243
tp244
a(I122
Vnap
p245
tp246
a(I123
Vtea
p247
tp248
a(I124
Vmax
p249
tp250
a(I125
Vgun
p251
tp252
a(I126
Vbob
p253
tp254
a(I127
Vlee
p255
tp256
a(I128
Vomg
p257
tp258
a(I129
Vhat
p259
tp260
a(I130
Vapp
p261
tp262
a(I131
Vpic
p263
tp264
a(I132
Vtho
p265
tp266
a(I133
Vwit
p267
tp268
a(I134
Vmad
p269
tp270
a(I135
Veve
p271
tp272
a(I136
Vpie
p273
tp274
a(I137
Vpot
p275
tp276
a(I138
Vfed
p277
tp278
a(I139
Vave
p279
tp280
a(I140
Vegg
p281
tp282
a(I141
Vmap
p283
tp284
a(I142
Vsox
p285
tp286
a(I143
Vtim
p287
tp288
a(I144
Vwet
p289
tp290
a(I145
Vusa
p291
tp292
a(I146
Vfee
p293
tp294
a(I147
Vsam
p295
tp296
a(I148
Vgop
p297
tp298
a(I149
Vpop
p299
tp300
a(I150
Vpro
p301
tp302
a(I151
Vfix
p303
tp304
a(I152
Vnet
p305
tp306
a(I153
Vrow
p307
tp308
a(I154
Vima
p309
tp310
a(I155
Vfat
p311
tp312
a(I156
Vton
p313
tp314
a(I157
Vboo
p315
tp316
a(I158
Vcuz
p317
tp318
a(I159
Vraw
p319
tp320
a(I160
Vfox
p321
tp322
a(I161
Vpen
p323
tp324
a(I162
Vhip
p325
tp326
a(I163
Vera
p327
tp328
a(I164
Vbin
p329
tp330
a(I165
Vceo
p331
tp332
a(I166
Vwow
p333
tp334
a(I167
Vgap
p335
tp336
a(I168
Vsis
p337
tp338
a(I169
Vidk
p339
tp340
a(I170
Vink
p341
tp342
a(I171
Vmin
p343
tp344
a(I172
Vbid
p345
tp346
a(I173
Vleg
p347
tp348
a(I174
Vkit
p349
tp350
a(I175
Vbat
p351
tp352
a(I176
Vpit
p353
tp354
a(I177
Voak
p355
tp356
a(I178
Vear
p357
tp358
a(I179
Vvan
p359
tp360
a(I180
Vlbs
p361
tp362
a(I181
Vnhl
p363
tp364
a(I182
Vthx
p365
tp366
a(I183
Vrad
p367
tp368
a(I184
Vdef
p369
tp370
a(I185
Vpet
p371
tp372
a(I186
Vwat
p373
tp374
a(I187
Vvia
p375
tp376
a(I188
Vgov
p377
tp378
a(I189
Vtie
p379
tp380
a(I190
Vtip
p381
tp382
a(I191
Vtap
p383
tp384
a(I192
Vken
p385
tp386
a(I193
Vtan
p387
tp388
a(I194
Vsir
p389
tp390
a(I195
Vdoc
p391
tp392
a(I196
Vorg
p393
tp394
a(I197
Vdig
p395
tp396
a(I198
Vmac
p397
tp398
a(I199
Vnor
p399
tp400
a(I200
Vale
p401
tp402
a(I201
Vron
p403
tp404
a(I202
Vjam
p405
tp406
a(I203
Vbet
p407
tp408
a(I204
Vhmm
p409
tp410
a(I205
Vfab
p411
tp412
a(I206
Vhop
p413
tp414
a(I207
Vluv
p415
tp416
a(I208
Vlas
p417
tp418
a(I209
Vups
p419
tp420
a(I210
Vtxt
p421
tp422
a(I211
Vcop
p423
tp424
a(I212
Vrid
p425
tp426
a(I213
Vrib
p427
tp428
a(I214
Vrip
p429
tp430
a(I215
Vwee
p431
tp432
a(I216
Vetc
p433
tp434
a(I217
Vowe
p435
tp436
a(I218
Vbcs
p437
tp438
a(I219
Vtab
p439
tp440
a(I220
Vdon
p441
tp442
a(I221
Vian
p443
tp444
a(I222
Vbud
p445
tp446
a(I223
Vsmh
p447
tp448
a(I224
Vdna
p449
tp450
a(I225
Vmca
p451
tp452
a(I226
Vpad
p453
tp454
a(I227
Vpls
p455
tp456
a(I228
Vtil
p457
tp458
a(I229
Vfbi
p459
tp460
a(I230
Vhrs
p461
tp462
a(I231
Vjar
p463
tp464
a(I232
Vppl
p465
tp466
a(I233
Vmud
p467
tp468
a(I234
Vdat
p469
tp470
a(I235
Vdan
p471
tp472
a(I236
Vzip
p473
tp474
a(I237
Vaug
p475
tp476
a(I238
Vmvp
p477
tp478
a(I239
Vlap
p479
tp480
a(I240
Vdmv
p481
tp482
a(I241
Vdel
p483
tp484
a(I242
Vaim
p485
tp486
a(I243
Vugh
p487
tp488
a(I244
Vcon
p489
tp490
a(I245
Vbiz
p491
tp492
a(I246
Vwtf
p493
tp494
a(I247
Vinc
p495
tp496
a(I248
Vpal
p497
tp498
a(I249
Vpan
p499
tp500
a(I250
Vthat
p501
tp502
a(I251
Vwith
p503
tp504
a(I252
Vhave
p505
tp506
a(I253
Vthis
p507
tp508
a(I254
Vfrom
p509
tp510
a(I255
Vwhat
p511
tp512
a(I256
Vwill
p513
tp514
a(I257
Vlike
p515
tp516
a(I258
Vjust
p517
tp518
a(I259
Vwhen
p519
tp520
a(I260
Vmore
p521
tp522
a(I261
Vsome
p523
tp524
a(I262
Vtime
p525
tp526
a(I263
Vbeen
p527
tp528
a(I264
Vwere
p529
tp530
a(I265
Vsaid
p531
tp532
a(I266
Vgood
p533
tp534
a(I267
Vknow
p535
tp536
a(I268
Vthem
p537
tp538
a(I269
Vinto
p539
tp540
a(I270
Vlove
p541
tp542
a(I271
Vback
p543
tp544
a(I272
Vthan
p545
tp546
a(I273
Vover
p547
tp548
a(I274
Valso
p549
tp550
a(I275
Vmuch
p551
tp552
a(I276
Veven
p553
tp554
a(I277
Vlast
p555
tp556
a(I278
Vmake
p557
tp558
a(I279
Vthen
p559
tp560
a(I280
Vwork
p561
tp562
a(I281
Vmost
p563
tp564
a(I282
Vdoes
p565
tp566
a(I283
Vweek
p567
tp568
a(I284
Vdown
p569
tp570
a(I285
Vhere
p571
tp572
a(I286
Vwant
p573
tp574
a(I287
Vmade
p575
tp576
a(I288
Vlife
p577
tp578
a(I289
Vneed
p579
tp580
a(I290
Vnext
p581
tp582
a(I291
Vhome
p583
tp584
a(I292
Vwell
p585
tp586
a(I293
Vcome
p587
tp588
a(I294
Vtake
p589
tp590
a(I295
Vbest
p591
tp592
a(I296
Vshow
p593
tp594
a(I297
Vgame
p595
tp596
a(I298
Vlong
p597
tp598
a(I299
Vfeel
p599
tp600
a(I300
Vfind
p601
tp602
a(I301
Vlook
p603
tp604
a(I302
Vhope
p605
tp606
a(I303
Vteam
p607
tp608
a(I304
Vleft
p609
tp610
a(I305
Vever
p611
tp612
a(I306
Vsure
p613
tp614
a(I307
Vsame
p615
tp616
a(I308
Veach
p617
tp618
a(I309
Vhelp
p619
tp620
a(I310
Vsuch
p621
tp622
a(I311
Vpart
p623
tp624
a(I312
Vwent
p625
tp626
a(I313
Vkeep
p627
tp628
a(I314
Vdone
p629
tp630
a(I315
Vbook
p631
tp632
a(I316
Vhard
p633
tp634
a(I317
Vgive
p635
tp636
a(I318
Vcame
p637
tp638
a(I319
Vboth
p639
tp640
a(I320
Vused
p641
tp642
a(I321
Vtell
p643
tp644
a(I322
Vread
p645
tp646
a(I323
Vtook
p647
tp648
a(I324
Vplan
p649
tp650
a(I325
Vcare
p651
tp652
a(I326
Vcall
p653
tp654
a(I327
Vhigh
p655
tp656
a(I328
Vfree
p657
tp658
a(I329
Vlive
p659
tp660
a(I330
Vname
p661
tp662
a(I331
Vstop
p663
tp664
a(I332
Vtalk
p665
tp666
a(I333
Vwait
p667
tp668
a(I334
Vonce
p669
tp670
a(I335
Vsoon
p671
tp672
a(I336
Vmust
p673
tp674
a(I337
Vable
p675
tp676
a(I338
Vgirl
p677
tp678
a(I339
Vnice
p679
tp680
a(I340
Vcase
p681
tp682
a(I341
Vreal
p683
tp684
a(I342
Vpast
p685
tp686
a(I343
Vless
p687
tp688
a(I344
Vnews
p689
tp690
a(I345
Vmiss
p691
tp692
a(I346
Vhand
p693
tp694
a(I347
Vhead
p695
tp696
a(I348
Vfull
p697
tp698
a(I349
Vkids
p699
tp700
a(I350
Vface
p701
tp702
a(I351
Vfour
p703
tp704
a(I352
Vfood
p705
tp706
a(I353
Vside
p707
tp708
a(I354
Vroom
p709
tp710
a(I355
Vtrue
p711
tp712
a(I356
Vopen
p713
tp714
a(I357
Velse
p715
tp716
a(I358
Vpark
p717
tp718
a(I359
Vmind
p719
tp720
a(I360
Vwish
p721
tp722
a(I361
Vhate
p723
tp724
a(I362
Vpost
p725
tp726
a(I363
Vhair
p727
tp728
a(I364
Vtold
p729
tp730
a(I365
Vkind
p731
tp732
a(I366
Vhear
p733
tp734
a(I367
Vbeer
p735
tp736
a(I368
Vblog
p737
tp738
a(I369
Vcool
p739
tp740
a(I370
Vhalf
p741
tp742
a(I371
Vline
p743
tp744
a(I372
Vfive
p745
tp746
a(I373
Vlead
p747
tp748
a(I374
Vroad
p749
tp750
a(I375
Videa
p751
tp752
a(I376
Vtown
p753
tp754
a(I377
Vmeet
p755
tp756
a(I378
Vlist
p757
tp758
a(I379
Vseen
p759
tp760
a(I380
Vmean
p761
tp762
a(I381
Vohio
p763
tp764
a(I382
Vsite
p765
tp766
a(I383
Vdeal
p767
tp768
a(I384
Vmove
p769
tp770
a(I385
Vsong
p771
tp772
a(I386
Vknew
p773
tp774
a(I387
Vlost
p775
tp776
a(I388
Varea
p777
tp778
a(I389
Vlate
p779
tp780
a(I390
Vwife
p781
tp782
a(I391
Vgave
p783
tp784
a(I392
Vgets
p785
tp786
a(I393
Vturn
p787
tp788
a(I394
Vgoes
p789
tp790
a(I395
Vshot
p791
tp792
a(I396
Vhold
p793
tp794
a(I397
Vrest
p795
tp796
a(I398
Vsend
p797
tp798
a(I399
Vpick
p799
tp800
a(I400
Vtrip
p801
tp802
a(I401
Vdoor
p803
tp804
a(I402
Vcost
p805
tp806
a(I403
Vseem
p807
tp808
a(I404
Vglad
p809
tp810
a(I405
Vgone
p811
tp812
a(I406
Vfilm
p813
tp814
a(I407
Vones
p815
tp816
a(I408
Vheld
p817
tp818
a(I409
Vtour
p819
tp820
a(I410
Vfine
p821
tp822
a(I411
Vbeat
p823
tp824
a(I412
Vpass
p825
tp826
a(I413
Vsign
p827
tp828
a(I414
Vfall
p829
tp830
a(I415
Vfelt
p831
tp832
a(I416
Vhaha
p833
tp834
a(I417
Vhuge
p835
tp836
a(I418
Vword
p837
tp838
a(I419
Vhour
p839
tp840
a(I420
Vpain
p841
tp842
a(I421
Vwalk
p843
tp844
a(I422
Vcard
p845
tp846
a(I423
Vfact
p847
tp848
a(I424
Vnear
p849
tp850
a(I425
Vwear
p851
tp852
a(I426
Vruns
p853
tp854
a(I427
Vjohn
p855
tp856
a(I428
Vclub
p857
tp858
a(I429
Vfire
p859
tp860
a(I430
Vfans
p861
tp862
a(I431
Vland
p863
tp864
a(I432
Vshit
p865
tp866
a(I433
Vbill
p867
tp868
a(I434
Vplus
p869
tp870
a(I435
Vbowl
p871
tp872
a(I436
Vfast
p873
tp874
a(I437
Vfuck
p875
tp876
a(I438
Vvote
p877
tp878
a(I439
Vupon
p879
tp880
a(I440
Vform
p881
tp882
a(I441
Vdead
p883
tp884
a(I442
Veast
p885
tp886
a(I443
Vband
p887
tp888
a(I444
Vjobs
p889
tp890
a(I445
Vball
p891
tp892
a(I446
Vspot
p893
tp894
a(I447
Vmine
p895
tp896
a(I448
Vonto
p897
tp898
a(I449
Vkept
p899
tp900
a(I450
Vwine
p901
tp902
a(I451
Vwest
p903
tp904
a(I452
Vhurt
p905
tp906
a(I453
Vfear
p907
tp908
a(I454
Vpage
p909
tp910
a(I455
Vlord
p911
tp912
a(I456
Vcold
p913
tp914
a(I457
Vwarm
p915
tp916
a(I458
Vgoal
p917
tp918
a(I459
Vrace
p919
tp920
a(I460
Vdied
p921
tp922
a(I461
Vdont
p923
tp924
a(I462
Vmain
p925
tp926
a(I463
Vjune
p927
tp928
a(I464
Vmark
p929
tp930
a(I465
Vsafe
p931
tp932
a(I466
Vrisk
p933
tp934
a(I467
Vrose
p935
tp936
a(I468
Vkill
p937
tp938
a(I469
Vloss
p939
tp940
a(I470
Vdamn
p941
tp942
a(I471
Vdata
p943
tp944
a(I472
Vrule
p945
tp946
a(I473
Vrole
p947
tp948
a(I474
Vfell
p949
tp950
a(I475
Vwins
p951
tp952
a(I476
Vstep
p953
tp954
a(I477
Vpush
p955
tp956
a(I478
Vsent
p957
tp958
a(I479
Vrain
p959
tp960
a(I480
Vbank
p961
tp962
a(I481
Vbout
p963
tp964
a(I482
Vdark
p965
tp966
a(I483
Vdrop
p967
tp968
a(I484
Vfeet
p969
tp970
a(I485
Vsave
p971
tp972
a(I486
Vseat
p973
tp974
a(I487
Vdrug
p975
tp976
a(I488
Vrock
p977
tp978
a(I489
Vsick
p979
tp980
a(I490
Vlose
p981
tp982
a(I491
Vcash
p983
tp984
a(I492
Vhell
p985
tp986
a(I493
Vdate
p987
tp988
a(I494
Vlots
p989
tp990
a(I495
Vhall
p991
tp992
a(I496
Vrate
p993
tp994
a(I497
Vheat
p995
tp996
a(I498
Vtest
p997
tp998
a(I499
Vlink
p999
tp1000
a(I500
Vpath
p1001
tp1002
a(I501
Vmenu
p1003
tp1004
a(I502
Vcute
p1005
tp1006
a(I503
Vslow
p1007
tp1008
a(I504
Vjoin
p1009
tp1010
a(I505
Vgrow
p1011
tp1012
a(I506
Vdogs
p1013
tp1014
a(I507
Vnote
p1015
tp1016
a(I508
Vpoor
p1017
tp1018
a(I509
Vroll
p1019
tp1020
a(I510
Vsale
p1021
tp1022
a(I511
Vview
p1023
tp1024
a(I512
Vsold
p1025
tp1026
a(I513
Vborn
p1027
tp1028
a(I514
Vdeep
p1029
tp1030
a(I515
Vmass
p1031
tp1032
a(I516
Vgift
p1033
tp1034
a(I517
Vrich
p1035
tp1036
a(I518
Vwake
p1037
tp1038
a(I519
Vsalt
p1039
tp1040
a(I520
Vnine
p1041
tp1042
a(I521
Vhits
p1043
tp1044
a(I522
Vluck
p1045
tp1046
a(I523
Vtree
p1047
tp1048
a(I524
Vwind
p1049
tp1050
a(I525
Vbase
p1051
tp1052
a(I526
Vgrew
p1053
tp1054
a(I527
Vtext
p1055
tp1056
a(I528
Vshut
p1057
tp1058
a(I529
Vsell
p1059
tp1060
a(I530
Vfish
p1061
tp1062
a(I531
Vdude
p1063
tp1064
a(I532
Vfoot
p1065
tp1066
a(I533
Vsnow
p1067
tp1068
a(I534
Vbike
p1069
tp1070
a(I535
Vpaid
p1071
tp1072
a(I536
Vlaws
p1073
tp1074
a(I537
Vcuts
p1075
tp1076
a(I538
Vcars
p1077
tp1078
a(I539
Vwood
p1079
tp1080
a(I540
Vblue
p1081
tp1082
a(I541
Vhill
p1083
tp1084
a(I542
Vcook
p1085
tp1086
a(I543
Vstar
p1087
tp1088
a(I544
Veggs
p1089
tp1090
a(I545
Vmike
p1091
tp1092
a(I546
Vlake
p1093
tp1094
a(I547
Vdraw
p1095
tp1096
a(I548
Vsort
p1097
tp1098
a(I549
Vlets
p1099
tp1100
a(I550
Vwall
p1101
tp1102
a(I551
Vcake
p1103
tp1104
a(I552
Vtill
p1105
tp1106
a(I553
Vcrew
p1107
tp1108
a(I554
Vends
p1109
tp1110
a(I555
Vtool
p1111
tp1112
a(I556
Vloud
p1113
tp1114
a(I557
Vfair
p1115
tp1116
a(I558
Vfirm
p1117
tp1118
a(I559
Vlift
p1119
tp1120
a(I560
Vshop
p1121
tp1122
a(I561
Vlmao
p1123
tp1124
a(I562
Vmilk
p1125
tp1126
a(I563
Vwild
p1127
tp1128
a(I564
Vride
p1129
tp1130
a(I565
Vsize
p1131
tp1132
a(I566
Vpics
p1133
tp1134
a(I567
Vages
p1135
tp1136
a(I568
Vrise
p1137
tp1138
a(I569
Vwhom
p1139
tp1140
a(I570
Vpink
p1141
tp1142
a(I571
Vnone
p1143
tp1144
a(I572
Vknee
p1145
tp1146
a(I573
Vsoul
p1147
tp1148
a(I574
Vbags
p1149
tp1150
a(I575
Vblow
p1151
tp1152
a(I576
Vmail
p1153
tp1154
a(I577
Vdumb
p1155
tp1156
a(I578
Vkick
p1157
tp1158
a(I579
Vring
p1159
tp1160
a(I580
Vpack
p1161
tp1162
a(I581
Vpull
p1163
tp1164
a(I582
Vcant
p1165
tp1166
a(I583
Vinfo
p1167
tp1168
a(I584
Vgold
p1169
tp1170
a(I585
Vsing
p1171
tp1172
a(I586
Vmess
p1173
tp1174
a(I587
Vears
p1175
tp1176
a(I588
Vlane
p1177
tp1178
a(I589
Vseek
p1179
tp1180
a(I590
Vtips
p1181
tp1182
a(I591
Vmama
p1183
tp1184
a(I592
Vpenn
p1185
tp1186
a(I593
Vmeat
p1187
tp1188
a(I594
Vjose
p1189
tp1190
a(I595
Vbold
p1191
tp1192
a(I596
Vdebt
p1193
tp1194
a(I597
Vfund
p1195
tp1196
a(I598
Vsoft
p1197
tp1198
a(I599
Vboss
p1199
tp1200
a(I600
Viran
p1201
tp1202
a(I601
Vplot
p1203
tp1204
a(I602
Vlack
p1205
tp1206
a(I603
Vcore
p1207
tp1208
a(I604
Vjack
p1209
tp1210
a(I605
Vpool
p1211
tp1212
a(I606
Vtall
p1213
tp1214
a(I607
Vrice
p1215
tp1216
a(I608
Vuses
p1217
tp1218
a(I609
Vevil
p1219
tp1220
a(I610
Vking
p1221
tp1222
a(I611
Vipad
p1223
tp1224
a(I612
Vflew
p1225
tp1226
a(I613
Vtask
p1227
tp1228
a(I614
Varts
p1229
tp1230
a(I615
Vquit
p1231
tp1232
a(I616
Vcorn
p1233
tp1234
a(I617
Vsand
p1235
tp1236
a(I618
Vcast
p1237
tp1238
a(I619
Vsees
p1239
tp1240
a(I620
Vasks
p1241
tp1242
a(I621
Vsets
p1243
tp1244
a(I622
Varms
p1245
tp1246
a(I623
Vself
p1247
tp1248
a(I624
Vwoke
p1249
tp1250
a(I625
Vskin
p1251
tp1252
a(I626
Vlegs
p1253
tp1254
a(I627
Vterm
p1255
tp1256
a(I628
Vstir
p1257
tp1258
a(I629
Veric
p1259
tp1260
a(I630
Vedge
p1261
tp1262
a(I631
Vford
p1263
tp1264
a(I632
Vbear
p1265
tp1266
a(I633
Vnoon
p1267
tp1268
a(I634
Vgolf
p1269
tp1270
a(I635
Vpaul
p1271
tp1272
a(I636
Vgoin
p1273
tp1274
a(I637
Vhero
p1275
tp1276
a(I638
Vputs
p1277
tp1278
a(I639
Vgain
p1279
tp1280
a(I640
Vlock
p1281
tp1282
a(I641
Vross
p1283
tp1284
a(I642
Vhunt
p1285
tp1286
a(I643
Vmitt
p1287
tp1288
a(I644
Vexam
p1289
tp1290
a(I645
Vjake
p1291
tp1292
a(I646
Vpour
p1293
tp1294
a(I647
Vbake
p1295
tp1296
a(I648
Vflip
p1297
tp1298
a(I649
Vmall
p1299
tp1300
a(I650
Vpair
p1301
tp1302
a(I651
Vcode
p1303
tp1304
a(I652
Vmeal
p1305
tp1306
a(I653
Vpace
p1307
tp1308
a(I654
Vdish
p1309
tp1310
a(I655
Vjump
p1311
tp1312
a(I656
Vneck
p1313
tp1314
a(I657
Vjail
p1315
tp1316
a(I658
Vlies
p1317
tp1318
a(I659
Vfeed
p1319
tp1320
a(I660
Vsoup
p1321
tp1322
a(I661
Valex
p1323
tp1324
a(I662
Vtune
p1325
tp1326
a(I663
Vhide
p1327
tp1328
a(I664
Vmood
p1329
tp1330
a(I665
Vfill
p1331
tp1332
a(I666
Vncaa
p1333
tp1334
a(I667
Vdiet
p1335
tp1336
a(I668
Vdesk
p1337
tp1338
a(I669
Vweak
p1339
tp1340
a(I670
Vgrab
p1341
tp1342
a(I671
Vjoke
p1343
tp1344
a(I672
Voven
p1345
tp1346
a(I673
Vchat
p1347
tp1348
a(I674
Vloan
p1349
tp1350
a(I675
Vdrew
p1351
tp1352
a(I676
Vbars
p1353
tp1354
a(I677
Vzero
p1355
tp1356
a(I678
Vthin
p1357
tp1358
a(I679
Vsore
p1359
tp1360
a(I680
Vjane
p1361
tp1362
a(I681
Vhole
p1363
tp1364
a(I682
Vcats
p1365
tp1366
a(I683
Vcalm
p1367
tp1368
a(I684
Vgear
p1369
tp1370
a(I685
Vwide
p1371
tp1372
a(I686
Vmoms
p1373
tp1374
a(I687
Vjeff
p1375
tp1376
a(I688
Vbell
p1377
tp1378
a(I689
Vpump
p1379
tp1380
a(I690
Vtech
p1381
tp1382
a(I691
Vodds
p1383
tp1384
a(I692
Vwont
p1385
tp1386
a(I693
Vloaf
p1387
tp1388
a(I694
Vwash
p1389
tp1390
a(I695
Vbush
p1391
tp1392
a(I696
Vfees
p1393
tp1394
a(I697
Vnick
p1395
tp1396
a(I698
Vsuck
p1397
tp1398
a(I699
Vthru
p1399
tp1400
a(I700
Vtend
p1401
tp1402
a(I701
Vacts
p1403
tp1404
a(I702
Vapps
p1405
tp1406
a(I703
Vdear
p1407
tp1408
a(I704
Vkiss
p1409
tp1410
a(I705
Vload
p1411
tp1412
a(I706
Vwing
p1413
tp1414
a(I707
Vsnap
p1415
tp1416
a(I708
Vrush
p1417
tp1418
a(I709
Voral
p1419
tp1420
a(I710
Vcell
p1421
tp1422
a(I711
Vboat
p1423
tp1424
a(I712
Vdare
p1425
tp1426
a(I713
Vzone
p1427
tp1428
a(I714
Vcrap
p1429
tp1430
a(I715
Vhang
p1431
tp1432
a(I716
Vbrad
p1433
tp1434
a(I717
Vespn
p1435
tp1436
a(I718
Vepic
p1437
tp1438
a(I719
Vnite
p1439
tp1440
a(I720
Viowa
p1441
tp1442
a(I721
Vmath
p1443
tp1444
a(I722
Vgang
p1445
tp1446
a(I723
Vfail
p1447
tp1448
a(I724
Vtorn
p1449
tp1450
a(I725
Vbuzz
p1451
tp1452
a(I726
Vmins
p1453
tp1454
a(I727
Vboil
p1455
tp1456
a(I728
Vfool
p1457
tp1458
a(I729
Vpets
p1459
tp1460
a(I730
Vluke
p1461
tp1462
a(I731
Vpipe
p1463
tp1464
a(I732
Vwrap
p1465
tp1466
a(I733
Vtape
p1467
tp1468
a(I734
Vskip
p1469
tp1470
a(I735
Vhire
p1471
tp1472
a(I736
Vauto
p1473
tp1474
a(I737
Vtied
p1475
tp1476
a(I738
Vlean
p1477
tp1478
a(I739
Vcops
p1479
tp1480
a(I740
Vwore
p1481
tp1482
a(I741
Vdope
p1483
tp1484
a(I742
Vdies
p1485
tp1486
a(I743
Vbull
p1487
tp1488
a(I744
Vcafe
p1489
tp1490
a(I745
Vdave
p1491
tp1492
a(I746
Vcure
p1493
tp1494
a(I747
Vadam
p1495
tp1496
a(I748
Vaged
p1497
tp1498
a(I749
Vspin
p1499
tp1500
a(I750
Vtoss
p1501
tp1502
a(I751
Vtone
p1503
tp1504
a(I752
Vaunt
p1505
tp1506
a(I753
Vthee
p1507
tp1508
a(I754
Vrams
p1509
tp1510
a(I755
Vsour
p1511
tp1512
a(I756
Vfuel
p1513
tp1514
a(I757
Vpeel
p1515
tp1516
a(I758
Vsolo
p1517
tp1518
a(I759
Vaids
p1519
tp1520
a(I760
Vmile
p1521
tp1522
a(I761
Vkits
p1523
tp1524
a(I762
Vphil
p1525
tp1526
a(I763
Vease
p1527
tp1528
a(I764
Vdeck
p1529
tp1530
a(I765
Vsoil
p1531
tp1532
a(I766
Vswim
p1533
tp1534
a(I767
Vmatt
p1535
tp1536
a(I768
Vutah
p1537
tp1538
a(I769
Vfate
p1539
tp1540
a(I770
Vwoes
p1541
tp1542
a(I771
Vnato
p1543
tp1544
a(I772
Vhost
p1545
tp1546
a(I773
Vwise
p1547
tp1548
a(I774
Vmale
p1549
tp1550
a(I775
Vanna
p1551
tp1552
a(I776
Vblew
p1553
tp1554
a(I777
Vtail
p1555
tp1556
a(I778
Vplea
p1557
tp1558
a(I779
Vbone
p1559
tp1560
a(I780
Vcamp
p1561
tp1562
a(I781
Vsink
p1563
tp1564
a(I782
Vroof
p1565
tp1566
a(I783
Vroot
p1567
tp1568
a(I784
Vworn
p1569
tp1570
a(I785
Vbomb
p1571
tp1572
a(I786
Vbelt
p1573
tp1574
a(I787
Vblur
p1575
tp1576
a(I788
Vimma
p1577
tp1578
a(I789
Vsuit
p1579
tp1580
a(I790
Vgreg
p1581
tp1582
a(I791
Vweed
p1583
tp1584
a(I792
Vjazz
p1585
tp1586
a(I793
Vbite
p1587
tp1588
a(I794
Vshoe
p1589
tp1590
a(I795
Vnose
p1591
tp1592
a(I796
Vvice
p1593
tp1594
a(I797
Vmoon
p1595
tp1596
a(I798
Vfake
p1597
tp1598
a(I799
Vgene
p1599
tp1600
a(I800
Vhung
p1601
tp1602
a(I801
Vslip
p1603
tp1604
a(I802
Vtodd
p1605
tp1606
a(I803
Vcoat
p1607
tp1608
a(I804
Vpunk
p1609
tp1610
a(I805
Vtwin
p1611
tp1612
a(I806
Vdoll
p1613
tp1614
a(I807
Vmode
p1615
tp1616
a(I808
Vbass
p1617
tp1618
a(I809
Vcolt
p1619
tp1620
a(I810
Vfarm
p1621
tp1622
a(I811
Vclue
p1623
tp1624
a(I812
Vlawn
p1625
tp1626
a(I813
Vbutt
p1627
tp1628
a(I814
Vrick
p1629
tp1630
a(I815
Vrack
p1631
tp1632
a(I816
Viron
p1633
tp1634
a(I817
Vgrip
p1635
tp1636
a(I818
Vbath
p1637
tp1638
a(I819
Vmini
p1639
tp1640
a(I820
Vdose
p1641
tp1642
a(I821
Vchen
p1643
tp1644
a(I822
Vhood
p1645
tp1646
a(I823
Vchef
p1647
tp1648
a(I824
Vharm
p1649
tp1650
a(I825
Vvast
p1651
tp1652
a(I826
Vfest
p1653
tp1654
a(I827
Vvibe
p1655
tp1656
a(I828
Vlogo
p1657
tp1658
a(I829
Vtick
p1659
tp1660
a(I830
Vstem
p1661
tp1662
a(I831
Vfare
p1663
tp1664
a(I832
Vblvd
p1665
tp1666
a(I833
Vfile
p1667
tp1668
a(I834
Vbend
p1669
tp1670
a(I835
Vfits
p1671
tp1672
a(I836
Vties
p1673
tp1674
a(I837
Vkong
p1675
tp1676
a(I838
Vowls
p1677
tp1678
a(I839
Vrode
p1679
tp1680
a(I840
Vtons
p1681
tp1682
a(I841
Vtbsp
p1683
tp1684
a(I842
Vrook
p1685
tp1686
a(I843
Vward
p1687
tp1688
a(I844
Vwars
p1689
tp1690
a(I845
Vmill
p1691
tp1692
a(I846
Valot
p1693
tp1694
a(I847
Vflow
p1695
tp1696
a(I848
Vhank
p1697
tp1698
a(I849
Vsake
p1699
tp1700
a(I850
Vdick
p1701
tp1702
a(I851
Vwire
p1703
tp1704
a(I852
Vramp
p1705
tp1706
a(I853
Vpale
p1707
tp1708
a(I854
Vitem
p1709
tp1710
a(I855
Vsits
p1711
tp1712
a(I856
Vnano
p1713
tp1714
a(I857
Vadds
p1715
tp1716
a(I858
Vlama
p1717
tp1718
a(I859
Vlime
p1719
tp1720
a(I860
Vtank
p1721
tp1722
a(I861
Varab
p1723
tp1724
a(I862
Vcage
p1725
tp1726
a(I863
Vlung
p1727
tp1728
a(I864
Vowns
p1729
tp1730
a(I865
Vcrab
p1731
tp1732
a(I866
Vsilk
p1733
tp1734
a(I867
Vdean
p1735
tp1736
a(I868
Vdarn
p1737
tp1738
a(I869
Vouts
p1739
tp1740
a(I870
Vlied
p1741
tp1742
a(I871
Vsubs
p1743
tp1744
a(I872
Vburn
p1745
tp1746
a(I873
Vpoem
p1747
tp1748
a(I874
Vcans
p1749
tp1750
a(I875
Vcent
p1751
tp1752
a(I876
Vruin
p1753
tp1754
a(I877
Vjets
p1755
tp1756
a(I878
Vjoel
p1757
tp1758
a(I879
Vrent
p1759
tp1760
a(I880
Vicon
p1761
tp1762
a(I881
Vhulk
p1763
tp1764
a(I882
Vhula
p1765
tp1766
a(I883
Vslot
p1767
tp1768
a(I884
Vhugs
p1769
tp1770
a(I885
Vspur
p1771
tp1772
a(I886
Vomfg
p1773
tp1774
a(I887
Vchip
p1775
tp1776
a(I888
Vrude
p1777
tp1778
a(I889
Vchic
p1779
tp1780
a(I890
Vneat
p1781
tp1782
a(I891
Vbail
p1783
tp1784
a(I892
Vcoin
p1785
tp1786
a(I893
Vexit
p1787
tp1788
a(I894
Vjosh
p1789
tp1790
a(I895
Vflag
p1791
tp1792
a(I896
Vpuck
p1793
tp1794
a(I897
Vsoda
p1795
tp1796
a(I898
Vheck
p1797
tp1798
a(I899
Vtrio
p1799
tp1800
a(I900
Vsigh
p1801
tp1802
a(I901
Vnike
p1803
tp1804
a(I902
Vcape
p1805
tp1806
a(I903
Vcorp
p1807
tp1808
a(I904
Vcord
p1809
tp1810
a(I905
Vfame
p1811
tp1812
a(I906
Vflea
p1813
tp1814
a(I907
Vsuns
p1815
tp1816
a(I908
Vclip
p1817
tp1818
a(I909
Vprix
p1819
tp1820
a(I910
Vvick
p1821
tp1822
a(I911
Vfolk
p1823
tp1824
a(I912
Vduck
p1825
tp1826
a(I913
Vhook
p1827
tp1828
a(I914
Vdoin
p1829
tp1830
a(I915
Vpike
p1831
tp1832
a(I916
Vleap
p1833
tp1834
a(I917
Vjars
p1835
tp1836
a(I918
Vfoul
p1837
tp1838
a(I919
Vaint
p1839
tp1840
a(I920
Vunit
p1841
tp1842
a(I921
Vship
p1843
tp1844
a(I922
Vbugs
p1845
tp1846
a(I923
Vcavs
p1847
tp1848
a(I924
Vthus
p1849
tp1850
a(I925
Vhalt
p1851
tp1852
a(I926
Vdang
p1853
tp1854
a(I927
Vguns
p1855
tp1856
a(I928
Vsons
p1857
tp1858
a(I929
Vgown
p1859
tp1860
a(I930
Vmild
p1861
tp1862
a(I931
Vpeas
p1863
tp1864
a(I932
Vprob
p1865
tp1866
a(I933
Vanne
p1867
tp1868
a(I934
Vprom
p1869
tp1870
a(I935
Vcarl
p1871
tp1872
a(I936
Vchoc
p1873
tp1874
a(I937
Vuser
p1875
tp1876
a(I938
Vbark
p1877
tp1878
a(I939
Vtuna
p1879
tp1880
a(I940
Vmesa
p1881
tp1882
a(I941
Vgosh
p1883
tp1884
a(I942
Vport
p1885
tp1886
a(I943
Vsang
p1887
tp1888
a(I944
Vteen
p1889
tp1890
a(I945
Vcruz
p1891
tp1892
a(I946
Vdust
p1893
tp1894
a(I947
Vlest
p1895
tp1896
a(I948
Vwhoa
p1897
tp1898
a(I949
Vmate
p1899
tp1900
a(I950
Vrash
p1901
tp1902
a(I951
Votep
p1903
tp1904
a(I952
Vbart
p1905
tp1906
a(I953
Vfond
p1907
tp1908
a(I954
Vcabo
p1909
tp1910
a(I955
Vavid
p1911
tp1912
a(I956
Vexpo
p1913
tp1914
a(I957
Vtens
p1915
tp1916
a(I958
Vbolt
p1917
tp1918
a(I959
Vtent
p1919
tp1920
a(I960
Vprop
p1921
tp1922
a(I961
Vsacs
p1923
tp1924
a(I962
Vsack
p1925
tp1926
a(I963
Vthor
p1927
tp1928
a(I964
Viris
p1929
tp1930
a(I965
Vbore
p1931
tp1932
a(I966
Vlone
p1933
tp1934
a(I967
Vbruh
p1935
tp1936
a(I968
Vfort
p1937
tp1938
a(I969
Vdots
p1939
tp1940
a(I970
Vglue
p1941
tp1942
a(I971
Vpiss
p1943
tp1944
a(I972
Vribs
p1945
tp1946
a(I973
Vvain
p1947
tp1948
a(I974
Vbrim
p1949
tp1950
a(I975
Vjenn
p1951
tp1952
a(I976
Vfork
p1953
tp1954
a(I977
Vhops
p1955
tp1956
a(I978
Vtoes
p1957
tp1958
a(I979
Vdash
p1959
tp1960
a(I980
Vdirt
p1961
tp1962
a(I981
Vtale
p1963
tp1964
a(I982
Vtomb
p1965
tp1966
a(I983
Vordo
p1967
tp1968
a(I984
Vnova
p1969
tp1970
a(I985
Vsean
p1971
tp1972
a(I986
Vjunk
p1973
tp1974
a(I987
Vseau
p1975
tp1976
a(I988
Vodor
p1977
tp1978
a(I989
Vseas
p1979
tp1980
a(I990
Vwiki
p1981
tp1982
a(I991
Vzion
p1983
tp1984
a(I992
Vmelt
p1985
tp1986
a(I993
Vreed
p1987
tp1988
a(I994
Vbrew
p1989
tp1990
a(I995
Vjerk
p1991
tp1992
a(I996
Vmahi
p1993
tp1994
a(I997
Vdoug
p1995
tp1996
a(I998
Vdiss
p1997
tp1998
a(I999
Vtear
p1999
tp2000
a(I1000
Vabout
p2001
tp2002
a(I1001
Vthere
p2003
tp2004
a(I1002
Vwould
p2005
tp2006
a(I1003
Vtheir
p2007
tp2008
a(I1004
Vwhich
p2009
tp2010
a(I1005
Vcould
p2011
tp2012
a(I1006
Vafter
p2013
tp2014
a(I1007
Vfirst
p2015
tp2016
a(I1008
Vgoing
p2017
tp2018
a(I1009
Vthink
p2019
tp2020
a(I1010
Vother
p2021
tp2022
a(I1011
Vgreat
p2023
tp2024
a(I1012
Vwhere
p2025
tp2026
a(I1013
Vstill
p2027
tp2028
a(I1014
Vthose
p2029
tp2030
a(I1015
Vnever
p2031
tp2032
a(I1016
Vwhile
p2033
tp2034
a(I1017
Vthese
p2035
tp2036
a(I1018
Vbeing
p2037
tp2038
a(I1019
Vright
p2039
tp2040
a(I1020
Vnight
p2041
tp2042
a(I1021
Vstate
p2043
tp2044
a(I1022
Vworld
p2045
tp2046
a(I1023
Vsince
p2047
tp2048
a(I1024
Vagain
p2049
tp2050
a(I1025
Vthing
p2051
tp2052
a(I1026
Vplace
p2053
tp2054
a(I1027
Vthree
p2055
tp2056
a(I1028
Vuntil
p2057
tp2058
a(I1029
Vdoing
p2059
tp2060
a(I1030
Vfound
p2061
tp2062
a(I1031
Vhouse
p2063
tp2064
a(I1032
Vstart
p2065
tp2066
a(I1033
Vmight
p2067
tp2068
a(I1034
Vtimes
p2069
tp2070
a(I1035
Vmusic
p2071
tp2072
a(I1036
Vpoint
p2073
tp2074
a(I1037
Vunder
p2075
tp2076
a(I1038
Vcheck
p2077
tp2078
a(I1039
Vmakes
p2079
tp2080
a(I1040
Vthank
p2081
tp2082
a(I1041
Vmonth
p2083
tp2084
a(I1042
Vsmall
p2085
tp2086
a(I1043
Vweeks
p2087
tp2088
a(I1044
Valong
p2089
tp2090
a(I1045
Voften
p2091
tp2092
a(I1046
Vwatch
p2093
tp2094
a(I1047
Vwater
p2095
tp2096
a(I1048
Vshort
p2097
tp2098
a(I1049
Vlater
p2099
tp2100
a(I1050
Vheard
p2101
tp2102
a(I1051
Vleast
p2103
tp2104
a(I1052
Vnorth
p2105
tp2106
a(I1053
Vphone
p2107
tp2108
a(I1054
Vheart
p2109
tp2110
a(I1055
Vgroup
p2111
tp2112
a(I1056
Vboard
p2113
tp2114
a(I1057
Vwhole
p2115
tp2116
a(I1058
Vclass
p2117
tp2118
a(I1059
Vwomen
p2119
tp2120
a(I1060
Vleave
p2121
tp2122
a(I1061
Vgames
p2123
tp2124
a(I1062
Vcourt
p2125
tp2126
a(I1063
Vclose
p2127
tp2128
a(I1064
Vbring
p2129
tp2130
a(I1065
Vloved
p2131
tp2132
a(I1066
Vshare
p2133
tp2134
a(I1067
Vneeds
p2135
tp2136
a(I1068
Vevent
p2137
tp2138
a(I1069
Vhours
p2139
tp2140
a(I1070
Vquite
p2141
tp2142
a(I1071
Vchild
p2143
tp2144
a(I1072
Vguess
p2145
tp2146
a(I1073
Vamong
p2147
tp2148
a(I1074
Vseems
p2149
tp2150
a(I1075
Vbooks
p2151
tp2152
a(I1076
Vmeans
p2153
tp2154
a(I1077
Vsleep
p2155
tp2156
a(I1078
Vstuff
p2157
tp2158
a(I1079
Vpower
p2159
tp2160
a(I1080
Vusing
p2161
tp2162
a(I1081
Vobama
p2163
tp2164
a(I1082
Vwhite
p2165
tp2166
a(I1083
Vdeath
p2167
tp2168
a(I1084
Vlooks
p2169
tp2170
a(I1085
Vtaken
p2171
tp2172
a(I1086
Vfinal
p2173
tp2174
a(I1087
Vwoman
p2175
tp2176
a(I1088
Vbased
p2177
tp2178
a(I1089
Vgirls
p2179
tp2180
a(I1090
Vcomes
p2181
tp2182
a(I1091
Vlight
p2183
tp2184
a(I1092
Vfront
p2185
tp2186
a(I1093
Vorder
p2187
tp2188
a(I1094
Vthird
p2189
tp2190
a(I1095
Vmovie
p2191
tp2192
a(I1096
Vlocal
p2193
tp2194
a(I1097
Vlarge
p2195
tp2196
a(I1098
Vdrive
p2197
tp2198
a(I1099
Vvideo
p2199
tp2200
a(I1100
Vplans
p2201
tp2202
a(I1101
Vgiven
p2203
tp2204
a(I1102
Vasked
p2205
tp2206
a(I1103
Vmedia
p2207
tp2208
a(I1104
Vblack
p2209
tp2210
a(I1105
Vtried
p2211
tp2212
a(I1106
Vworks
p2213
tp2214
a(I1107
Vgreen
p2215
tp2216
a(I1108
Vspent
p2217
tp2218
a(I1109
Vmajor
p2219
tp2220
a(I1110
Vcause
p2221
tp2222
a(I1111
Vwrong
p2223
tp2224
a(I1112
Vlives
p2225
tp2226
a(I1113
Vspace
p2227
tp2228
a(I1114
Vpiece
p2229
tp2230
a(I1115
Vshows
p2231
tp2232
a(I1116
Vwrite
p2233
tp2234
a(I1117
Vlearn
p2235
tp2236
a(I1118
Vwants
p2237
tp2238
a(I1119
Vbeach
p2239
tp2240
a(I1120
Vwords
p2241
tp2242
a(I1121
Vsweet
p2243
tp2244
a(I1122
Vprice
p2245
tp2246
a(I1123
Vsouth
p2247
tp2248
a(I1124
Vfeels
p2249
tp2250
a(I1125
Vbegan
p2251
tp2252
a(I1126
Vapril
p2253
tp2254
a(I1127
Vtweet
p2255
tp2256
a(I1128
Vfocus
p2257
tp2258
a(I1129
Vcover
p2259
tp2260
a(I1130
Vfield
p2261
tp2262
a(I1131
Valone
p2263
tp2264
a(I1132
Vmarch
p2265
tp2266
a(I1133
Vissue
p2267
tp2268
a(I1134
Vseven
p2269
tp2270
a(I1135
Vlevel
p2271
tp2272
a(I1136
Vbrown
p2273
tp2274
a(I1137
Valbum
p2275
tp2276
a(I1138
Vvisit
p2277
tp2278
a(I1139
Vpaper
p2279
tp2280
a(I1140
Vtakes
p2281
tp2282
a(I1141
Vmoved
p2283
tp2284
a(I1142
Vlouis
p2285
tp2286
a(I1143
Vsense
p2287
tp2288
a(I1144
Vcoach
p2289
tp2290
a(I1145
Vsales
p2291
tp2292
a(I1146
Vclear
p2293
tp2294
a(I1147
Vdrink
p2295
tp2296
a(I1148
Vfight
p2297
tp2298
a(I1149
Vabove
p2299
tp2300
a(I1150
Voffer
p2301
tp2302
a(I1151
Vhands
p2303
tp2304
a(I1152
Vbreak
p2305
tp2306
a(I1153
Vbuild
p2307
tp2308
a(I1154
Vforce
p2309
tp2310
a(I1155
Vbitch
p2311
tp2312
a(I1156
Vworst
p2313
tp2314
a(I1157
Vworth
p2315
tp2316
a(I1158
Vlunch
p2317
tp2318
a(I1159
Vvoice
p2319
tp2320
a(I1160
Vjesus
p2321
tp2322
a(I1161
Vtable
p2323
tp2324
a(I1162
Vspend
p2325
tp2326
a(I1163
Volder
p2327
tp2328
a(I1164
Vstaff
p2329
tp2330
a(I1165
Vsauce
p2331
tp2332
a(I1166
Vsuper
p2333
tp2334
a(I1167
Vvalue
p2335
tp2336
a(I1168
Vspeak
p2337
tp2338
a(I1169
Vemail
p2339
tp2340
a(I1170
Vknown
p2341
tp2342
a(I1171
Vwhose
p2343
tp2344
a(I1172
Vjudge
p2345
tp2346
a(I1173
Vraise
p2347
tp2348
a(I1174
Vtrial
p2349
tp2350
a(I1175
Vjames
p2351
tp2352
a(I1176
Vfloor
p2353
tp2354
a(I1177
Vahead
p2355
tp2356
a(I1178
Vhotel
p2357
tp2358
a(I1179
Vdream
p2359
tp2360
a(I1180
Vapple
p2361
tp2362
a(I1181
Vstore
p2363
tp2364
a(I1182
Vdavid
p2365
tp2366
a(I1183
Vextra
p2367
tp2368
a(I1184
Vphoto
p2369
tp2370
a(I1185
Vsound
p2371
tp2372
a(I1186
Vbelow
p2373
tp2374
a(I1187
Vround
p2375
tp2376
a(I1188
Vfresh
p2377
tp2378
a(I1189
Vcosts
p2379
tp2380
a(I1190
Vadded
p2381
tp2382
a(I1191
Vriver
p2383
tp2384
a(I1192
Vsmile
p2385
tp2386
a(I1193
Vstand
p2387
tp2388
a(I1194
Vreach
p2389
tp2390
a(I1195
Vchief
p2391
tp2392
a(I1196
Vtrust
p2393
tp2394
a(I1197
Vtwice
p2395
tp2396
a(I1198
Vcolor
p2397
tp2398
a(I1199
Vtitle
p2399
tp2400
a(I1200
Vstage
p2401
tp2402
a(I1201
Vearth
p2403
tp2404
a(I1202
Vcalls
p2405
tp2406
a(I1203
Vtaste
p2407
tp2408
a(I1204
Vknows
p2409
tp2410
a(I1205
Vdance
p2411
tp2412
a(I1206
Vbrand
p2413
tp2414
a(I1207
Vteams
p2415
tp2416
a(I1208
Vstick
p2417
tp2418
a(I1209
Vtrain
p2419
tp2420
a(I1210
Vplant
p2421
tp2422
a(I1211
Videas
p2423
tp2424
a(I1212
Vallow
p2425
tp2426
a(I1213
Vtired
p2427
tp2428
a(I1214
Vtrade
p2429
tp2430
a(I1215
Vended
p2431
tp2432
a(I1216
Vhuman
p2433
tp2434
a(I1217
Vtouch
p2435
tp2436
a(I1218
Vturns
p2437
tp2438
a(I1219
Vnovel
p2439
tp2440
a(I1220
Vbread
p2441
tp2442
a(I1221
Vglass
p2443
tp2444
a(I1222
Vtreat
p2445
tp2446
a(I1223
Vhomes
p2447
tp2448
a(I1224
Vagree
p2449
tp2450
a(I1225
Vchina
p2451
tp2452
a(I1226
Vmiles
p2453
tp2454
a(I1227
Vowner
p2455
tp2456
a(I1228
Vserve
p2457
tp2458
a(I1229
Vstuck
p2459
tp2460
a(I1230
Vchris
p2461
tp2462
a(I1231
Vsmith
p2463
tp2464
a(I1232
Vlikes
p2465
tp2466
a(I1233
Vtexas
p2467
tp2468
a(I1234
Vsongs
p2469
tp2470
a(I1235
Vblock
p2471
tp2472
a(I1236
Vgives
p2473
tp2474
a(I1237
Vfiled
p2475
tp2476
a(I1238
Virish
p2477
tp2478
a(I1239
Vparts
p2479
tp2480
a(I1240
Vbuilt
p2481
tp2482
a(I1241
Vaward
p2483
tp2484
a(I1242
Vaware
p2485
tp2486
a(I1243
Vstars
p2487
tp2488
a(I1244
Vdress
p2489
tp2490
a(I1245
Vtrees
p2491
tp2492
a(I1246
Vproud
p2493
tp2494
a(I1247
Vweird
p2495
tp2496
a(I1248
Vtotal
p2497
tp2498
a(I1249
Vnamed
p2499
tp2500
a(I1250
Vlower
p2501
tp2502
a(I1251
Vimage
p2503
tp2504
a(I1252
Vquick
p2505
tp2506
a(I1253
Vpages
p2507
tp2508
a(I1254
Vshoot
p2509
tp2510
a(I1255
Vcards
p2511
tp2512
a(I1256
Vlegal
p2513
tp2514
a(I1257
Vspeed
p2515
tp2516
a(I1258
Vloves
p2517
tp2518
a(I1259
Vhorse
p2519
tp2520
a(I1260
Vblood
p2521
tp2522
a(I1261
Vmagic
p2523
tp2524
a(I1262
Veight
p2525
tp2526
a(I1263
Vbegin
p2527
tp2528
a(I1264
Vradio
p2529
tp2530
a(I1265
Vbored
p2531
tp2532
a(I1266
Vareas
p2533
tp2534
a(I1267
Vrates
p2535
tp2536
a(I1268
Vunion
p2537
tp2538
a(I1269
Vgrand
p2539
tp2540
a(I1270
Vtrail
p2541
tp2542
a(I1271
Vpaint
p2543
tp2544
a(I1272
Vthrow
p2545
tp2546
a(I1273
Vstock
p2547
tp2548
a(I1274
Vtrack
p2549
tp2550
a(I1275
Vitems
p2551
tp2552
a(I1276
Vmetal
p2553
tp2554
a(I1277
Vhopes
p2555
tp2556
a(I1278
Vtower
p2557
tp2558
a(I1279
Vcrowd
p2559
tp2560
a(I1280
Vshout
p2561
tp2562
a(I1281
Vmouth
p2563
tp2564
a(I1282
Vloans
p2565
tp2566
a(I1283
Vdraft
p2567
tp2568
a(I1284
Vtough
p2569
tp2570
a(I1285
Vmiami
p2571
tp2572
a(I1286
Vshoes
p2573
tp2574
a(I1287
Vhonor
p2575
tp2576
a(I1288
Vcount
p2577
tp2578
a(I1289
Vpanel
p2579
tp2580
a(I1290
Vlived
p2581
tp2582
a(I1291
Vrules
p2583
tp2584
a(I1292
Vmodel
p2585
tp2586
a(I1293
Vsucks
p2587
tp2588
a(I1294
Vscene
p2589
tp2590
a(I1295
Vagent
p2591
tp2592
a(I1296
Vtruth
p2593
tp2594
a(I1297
Vlines
p2595
tp2596
a(I1298
Vheads
p2597
tp2598
a(I1299
Vnotes
p2599
tp2600
a(I1300
Vfaith
p2601
tp2602
a(I1301
Vpress
p2603
tp2604
a(I1302
Vgrown
p2605
tp2606
a(I1303
Vthats
p2607
tp2608
a(I1304
Vsmart
p2609
tp2610
a(I1305
Vgrade
p2611
tp2612
a(I1306
Vsorts
p2613
tp2614
a(I1307
Vgoals
p2615
tp2616
a(I1308
Vsmoke
p2617
tp2618
a(I1309
Vcatch
p2619
tp2620
a(I1310
Vvoted
p2621
tp2622
a(I1311
Vkinda
p2623
tp2624
a(I1312
Vusual
p2625
tp2626
a(I1313
Vliked
p2627
tp2628
a(I1314
Valive
p2629
tp2630
a(I1315
Vapart
p2631
tp2632
a(I1316
Vclean
p2633
tp2634
a(I1317
Vterms
p2635
tp2636
a(I1318
Vadams
p2637
tp2638
a(I1319
Vcivil
p2639
tp2640
a(I1320
Vdrugs
p2641
tp2642
a(I1321
Vquiet
p2643
tp2644
a(I1322
Vbears
p2645
tp2646
a(I1323
Vfilms
p2647
tp2648
a(I1324
Vbroke
p2649
tp2650
a(I1325
Vstood
p2651
tp2652
a(I1326
Vbrief
p2653
tp2654
a(I1327
Vpitch
p2655
tp2656
a(I1328
Vfewer
p2657
tp2658
a(I1329
Vballs
p2659
tp2660
a(I1330
Vfaces
p2661
tp2662
a(I1331
Vshots
p2663
tp2664
a(I1332
Vbrain
p2665
tp2666
a(I1333
Vtaxes
p2667
tp2668
a(I1334
Vmeant
p2669
tp2670
a(I1335
Vprint
p2671
tp2672
a(I1336
Vbunch
p2673
tp2674
a(I1337
Vscore
p2675
tp2676
a(I1338
Vchill
p2677
tp2678
a(I1339
Vbirth
p2679
tp2680
a(I1340
Venter
p2681
tp2682
a(I1341
Vcream
p2683
tp2684
a(I1342
Vnames
p2685
tp2686
a(I1343
Vabuse
p2687
tp2688
a(I1344
Vseeds
p2689
tp2690
a(I1345
Vthrew
p2691
tp2692
a(I1346
Vguest
p2693
tp2694
a(I1347
Vwhats
p2695
tp2696
a(I1348
Vlabor
p2697
tp2698
a(I1349
Vmatch
p2699
tp2700
a(I1350
Vavoid
p2701
tp2702
a(I1351
Vshall
p2703
tp2704
a(I1352
Vdozen
p2705
tp2706
a(I1353
Vleads
p2707
tp2708
a(I1354
Vsides
p2709
tp2710
a(I1355
Vwalls
p2711
tp2712
a(I1356
Varena
p2713
tp2714
a(I1357
Vcrime
p2715
tp2716
a(I1358
Vgreek
p2717
tp2718
a(I1359
Vplane
p2719
tp2720
a(I1360
Vkeeps
p2721
tp2722
a(I1361
Vfalls
p2723
tp2724
a(I1362
Vloose
p2725
tp2726
a(I1363
Vfault
p2727
tp2728
a(I1364
Vblogs
p2729
tp2730
a(I1365
Vplain
p2731
tp2732
a(I1366
Vaside
p2733
tp2734
a(I1367
Vblame
p2735
tp2736
a(I1368
Vgrace
p2737
tp2738
a(I1369
Vallen
p2739
tp2740
a(I1370
Vhired
p2741
tp2742
a(I1371
Vbasic
p2743
tp2744
a(I1372
Vcases
p2745
tp2746
a(I1373
Vdiego
p2747
tp2748
a(I1374
Vworse
p2749
tp2750
a(I1375
Vjuice
p2751
tp2752
a(I1376
Vgiant
p2753
tp2754
a(I1377
Vjapan
p2755
tp2756
a(I1378
Vtells
p2757
tp2758
a(I1379
Vadmit
p2759
tp2760
a(I1380
Vbanks
p2761
tp2762
a(I1381
Vsugar
p2763
tp2764
a(I1382
Vbills
p2765
tp2766
a(I1383
Vvotes
p2767
tp2768
a(I1384
Vplate
p2769
tp2770
a(I1385
Vocean
p2771
tp2772
a(I1386
Vrange
p2773
tp2774
a(I1387
Vcouch
p2775
tp2776
a(I1388
Vdrove
p2777
tp2778
a(I1389
Vsteve
p2779
tp2780
a(I1390
Vcrash
p2781
tp2782
a(I1391
Vpeace
p2783
tp2784
a(I1392
Vsharp
p2785
tp2786
a(I1393
Vcross
p2787
tp2788
a(I1394
Vindia
p2789
tp2790
a(I1395
Vadult
p2791
tp2792
a(I1396
Vwrote
p2793
tp2794
a(I1397
Vfired
p2795
tp2796
a(I1398
Vbirds
p2797
tp2798
a(I1399
Vchain
p2799
tp2800
a(I1400
Vcomic
p2801
tp2802
a(I1401
Vdoors
p2803
tp2804
a(I1402
Vsigns
p2805
tp2806
a(I1403
Vkevin
p2807
tp2808
a(I1404
Vcrack
p2809
tp2810
a(I1405
Vfrank
p2811
tp2812
a(I1406
Vscott
p2813
tp2814
a(I1407
Vsolid
p2815
tp2816
a(I1408
Vminor
p2817
tp2818
a(I1409
Vfixed
p2819
tp2820
a(I1410
Vwoods
p2821
tp2822
a(I1411
Vdoubt
p2823
tp2824
a(I1412
Vsplit
p2825
tp2826
a(I1413
Varmed
p2827
tp2828
a(I1414
Vtools
p2829
tp2830
a(I1415
Vfavor
p2831
tp2832
a(I1416
Vfruit
p2833
tp2834
a(I1417
Vuncle
p2835
tp2836
a(I1418
Vdough
p2837
tp2838
a(I1419
Vgifts
p2839
tp2840
a(I1420
Vstops
p2841
tp2842
a(I1421
Vprove
p2843
tp2844
a(I1422
Vhurts
p2845
tp2846
a(I1423
Vparks
p2847
tp2848
a(I1424
Vfolks
p2849
tp2850
a(I1425
Vbroad
p2851
tp2852
a(I1426
Vtalks
p2853
tp2854
a(I1427
Vtrend
p2855
tp2856
a(I1428
Vpizza
p2857
tp2858
a(I1429
Vhello
p2859
tp2860
a(I1430
Vshirt
p2861
tp2862
a(I1431
Vjones
p2863
tp2864
a(I1432
Vsanta
p2865
tp2866
a(I1433
Vsmell
p2867
tp2868
a(I1434
Vtight
p2869
tp2870
a(I1435
Vgrass
p2871
tp2872
a(I1436
Vawful
p2873
tp2874
a(I1437
Vlewis
p2875
tp2876
a(I1438
Vupset
p2877
tp2878
a(I1439
Vviews
p2879
tp2880
a(I1440
Vcents
p2881
tp2882
a(I1441
Vframe
p2883
tp2884
a(I1442
Vstone
p2885
tp2886
a(I1443
Vshame
p2887
tp2888
a(I1444
Vdeals
p2889
tp2890
a(I1445
Vedges
p2891
tp2892
a(I1446
Vbench
p2893
tp2894
a(I1447
Vmetro
p2895
tp2896
a(I1448
Vshake
p2897
tp2898
a(I1449
Vguilt
p2899
tp2900
a(I1450
Vfoods
p2901
tp2902
a(I1451
Vurban
p2903
tp2904
a(I1452
Vseats
p2905
tp2906
a(I1453
Vanger
p2907
tp2908
a(I1454
Vbacon
p2909
tp2910
a(I1455
Vchile
p2911
tp2912
a(I1456
Vtears
p2913
tp2914
a(I1457
Vshape
p2915
tp2916
a(I1458
Vwalks
p2917
tp2918
a(I1459
Vtopic
p2919
tp2920
a(I1460
Vmoves
p2921
tp2922
a(I1461
Vblues
p2923
tp2924
a(I1462
Vpicks
p2925
tp2926
a(I1463
Vdrama
p2927
tp2928
a(I1464
Vporch
p2929
tp2930
a(I1465
Vnigga
p2931
tp2932
a(I1466
Vprime
p2933
tp2934
a(I1467
Vrival
p2935
tp2936
a(I1468
Vblake
p2937
tp2938
a(I1469
Vactor
p2939
tp2940
a(I1470
Vteeth
p2941
tp2942
a(I1471
Vsweep
p2943
tp2944
a(I1472
Vposts
p2945
tp2946
a(I1473
Vexist
p2947
tp2948
a(I1474
Vchuck
p2949
tp2950
a(I1475
Vchose
p2951
tp2952
a(I1476
Vgrant
p2953
tp2954
a(I1477
Vspoke
p2955
tp2956
a(I1478
Vmoral
p2957
tp2958
a(I1479
Vunits
p2959
tp2960
a(I1480
Vswept
p2961
tp2962
a(I1481
Vmixed
p2963
tp2964
a(I1482
Vtrash
p2965
tp2966
a(I1483
Vfried
p2967
tp2968
a(I1484
Vmills
p2969
tp2970
a(I1485
Vangel
p2971
tp2972
a(I1486
Vclaim
p2973
tp2974
a(I1487
Vbones
p2975
tp2976
a(I1488
Vblind
p2977
tp2978
a(I1489
Vsheet
p2979
tp2980
a(I1490
Vfifth
p2981
tp2982
a(I1491
Vhelps
p2983
tp2984
a(I1492
Vcrown
p2985
tp2986
a(I1493
Vlemon
p2987
tp2988
a(I1494
Vbeers
p2989
tp2990
a(I1495
Vkinds
p2991
tp2992
a(I1496
Vspill
p2993
tp2994
a(I1497
Vargue
p2995
tp2996
a(I1498
Vprior
p2997
tp2998
a(I1499
Vnaked
p2999
tp3000
a(I1500
Vsteps
p3001
tp3002
a(I1501
Vgunna
p3003
tp3004
a(I1502
Vfunds
p3005
tp3006
a(I1503
Vguard
p3007
tp3008
a(I1504
Vcraft
p3009
tp3010
a(I1505
Vteach
p3011
tp3012
a(I1506
Vhills
p3013
tp3014
a(I1507
Vclark
p3015
tp3016
a(I1508
Vdebut
p3017
tp3018
a(I1509
Vexact
p3019
tp3020
a(I1510
Vjason
p3021
tp3022
a(I1511
Vhated
p3023
tp3024
a(I1512
Vlinks
p3025
tp3026
a(I1513
Vproof
p3027
tp3028
a(I1514
Vrisen
p3029
tp3030
a(I1515
Vstiff
p3031
tp3032
a(I1516
Vequal
p3033
tp3034
a(I1517
Vdrops
p3035
tp3036
a(I1518
Vsocks
p3037
tp3038
a(I1519
Vbaker
p3039
tp3040
a(I1520
Vholes
p3041
tp3042
a(I1521
Vninth
p3043
tp3044
a(I1522
Vforum
p3045
tp3046
a(I1523
Vqueen
p3047
tp3048
a(I1524
Vflesh
p3049
tp3050
a(I1525
Vnoise
p3051
tp3052
a(I1526
Vbound
p3053
tp3054
a(I1527
Vwings
p3055
tp3056
a(I1528
Vbeans
p3057
tp3058
a(I1529
Vroger
p3059
tp3060
a(I1530
Vsight
p3061
tp3062
a(I1531
Vstorm
p3063
tp3064
a(I1532
Vbands
p3065
tp3066
a(I1533
Vdepth
p3067
tp3068
a(I1534
Vsalsa
p3069
tp3070
a(I1535
Vspell
p3071
tp3072
a(I1536
Vfaced
p3073
tp3074
a(I1537
Vchase
p3075
tp3076
a(I1538
Vhoped
p3077
tp3078
a(I1539
Vchick
p3079
tp3080
a(I1540
Vgrows
p3081
tp3082
a(I1541
Vruled
p3083
tp3084
a(I1542
Vstole
p3085
tp3086
a(I1543
Vpeeps
p3087
tp3088
a(I1544
Vsteel
p3089
tp3090
a(I1545
Vmomma
p3091
tp3092
a(I1546
Vminds
p3093
tp3094
a(I1547
Vacres
p3095
tp3096
a(I1548
Vdated
p3097
tp3098
a(I1549
Vusers
p3099
tp3100
a(I1550
Vangle
p3101
tp3102
a(I1551
Vcheap
p3103
tp3104
a(I1552
Vsaved
p3105
tp3106
a(I1553
Vgrill
p3107
tp3108
a(I1554
Vfence
p3109
tp3110
a(I1555
Vtrace
p3111
tp3112
a(I1556
Vsouls
p3113
tp3114
a(I1557
Vtruck
p3115
tp3116
a(I1558
Vcreek
p3117
tp3118
a(I1559
Vstash
p3119
tp3120
a(I1560
Valice
p3121
tp3122
a(I1561
Vdrunk
p3123
tp3124
a(I1562
Vbruce
p3125
tp3126
a(I1563
Vankle
p3127
tp3128
a(I1564
Vboost
p3129
tp3130
a(I1565
Vfraud
p3131
tp3132
a(I1566
Vbrick
p3133
tp3134
a(I1567
Vebook
p3135
tp3136
a(I1568
Vtrick
p3137
tp3138
a(I1569
Vcoast
p3139
tp3140
a(I1570
Vtrout
p3141
tp3142
a(I1571
Vclown
p3143
tp3144
a(I1572
Vbible
p3145
tp3146
a(I1573
Vmaker
p3147
tp3148
a(I1574
Vchips
p3149
tp3150
a(I1575
Vdrill
p3151
tp3152
a(I1576
Vholds
p3153
tp3154
a(I1577
Vroast
p3155
tp3156
a(I1578
Vtwist
p3157
tp3158
a(I1579
Vlover
p3159
tp3160
a(I1580
Vducks
p3161
tp3162
a(I1581
Vhomer
p3163
tp3164
a(I1582
Vwheel
p3165
tp3166
a(I1583
Vfinds
p3167
tp3168
a(I1584
Vflies
p3169
tp3170
a(I1585
Vchoir
p3171
tp3172
a(I1586
Vdudes
p3173
tp3174
a(I1587
Vonion
p3175
tp3176
a(I1588
Vquilt
p3177
tp3178
a(I1589
Vcraig
p3179
tp3180
a(I1590
Vniche
p3181
tp3182
a(I1591
Voprah
p3183
tp3184
a(I1592
Vchili
p3185
tp3186
a(I1593
Vhosts
p3187
tp3188
a(I1594
Vcrisp
p3189
tp3190
a(I1595
Vclips
p3191
tp3192
a(I1596
Vloses
p3193
tp3194
a(I1597
Vmarks
p3195
tp3196
a(I1598
Vbeats
p3197
tp3198
a(I1599
Vshift
p3199
tp3200
a(I1600
Vtrips
p3201
tp3202
a(I1601
Vcliff
p3203
tp3204
a(I1602
Vrider
p3205
tp3206
a(I1603
Vrides
p3207
tp3208
a(I1604
Vrocks
p3209
tp3210
a(I1605
Vwives
p3211
tp3212
a(I1606
Vwaste
p3213
tp3214
a(I1607
Vcargo
p3215
tp3216
a(I1608
Vvalid
p3217
tp3218
a(I1609
Vshown
p3219
tp3220
a(I1610
Vscale
p3221
tp3222
a(I1611
Vvilla
p3223
tp3224
a(I1612
Vpound
p3225
tp3226
a(I1613
Vpatio
p3227
tp3228
a(I1614
Vbonus
p3229
tp3230
a(I1615
Vbucks
p3231
tp3232
a(I1616
Vfeast
p3233
tp3234
a(I1617
Vleaps
p3235
tp3236
a(I1618
Vgenre
p3237
tp3238
a(I1619
Vparis
p3239
tp3240
a(I1620
Vbrian
p3241
tp3242
a(I1621
Vkorea
p3243
tp3244
a(I1622
Vscrap
p3245
tp3246
a(I1623
Vliver
p3247
tp3248
a(I1624
Vskill
p3249
tp3250
a(I1625
Vboxes
p3251
tp3252
a(I1626
Vgrind
p3253
tp3254
a(I1627
Vpours
p3255
tp3256
a(I1628
Vmario
p3257
tp3258
a(I1629
Vchest
p3259
tp3260
a(I1630
Vheels
p3261
tp3262
a(I1631
Vrussa
p3263
tp3264
a(I1632
Verror
p3265
tp3266
a(I1633
Vpeter
p3267
tp3268
a(I1634
Vfacts
p3269
tp3270
a(I1635
Vsixth
p3271
tp3272
a(I1636
Vmoore
p3273
tp3274
a(I1637
Vseeks
p3275
tp3276
a(I1638
Vflour
p3277
tp3278
a(I1639
Vdealt
p3279
tp3280
a(I1640
Vsetup
p3281
tp3282
a(I1641
Vnoted
p3283
tp3284
a(I1642
Vthick
p3285
tp3286
a(I1643
Vbasis
p3287
tp3288
a(I1644
Vcared
p3289
tp3290
a(I1645
Vmeets
p3291
tp3292
a(I1646
Vidiot
p3293
tp3294
a(I1647
Vcited
p3295
tp3296
a(I1648
Vindie
p3297
tp3298
a(I1649
Vdraws
p3299
tp3300
a(I1650
Vwines
p3301
tp3302
a(I1651
Vfalse
p3303
tp3304
a(I1652
Vharsh
p3305
tp3306
a(I1653
Vlabel
p3307
tp3308
a(I1654
Vvegas
p3309
tp3310
a(I1655
Vcakes
p3311
tp3312
a(I1656
Vsites
p3313
tp3314
a(I1657
Vmerit
p3315
tp3316
a(I1658
Vloads
p3317
tp3318
a(I1659
Vbride
p3319
tp3320
a(I1660
Vteens
p3321
tp3322
a(I1661
Vdavis
p3323
tp3324
a(I1662
Vupper
p3325
tp3326
a(I1663
Vblown
p3327
tp3328
a(I1664
Vtheme
p3329
tp3330
a(I1665
Vowned
p3331
tp3332
a(I1666
Vlions
p3333
tp3334
a(I1667
Vchart
p3335
tp3336
a(I1668
Vsteal
p3337
tp3338
a(I1669
Vsteak
p3339
tp3340
a(I1670
Vbraun
p3341
tp3342
a(I1671
Vnails
p3343
tp3344
a(I1672
Vpoems
p3345
tp3346
a(I1673
Voccur
p3347
tp3348
a(I1674
Vinbox
p3349
tp3350
a(I1675
Vbulls
p3351
tp3352
a(I1676
Vfirms
p3353
tp3354
a(I1677
Vflood
p3355
tp3356
a(I1678
Vkeith
p3357
tp3358
a(I1679
Vpants
p3359
tp3360
a(I1680
Vlimit
p3361
tp3362
a(I1681
Vhabit
p3363
tp3364
a(I1682
Vtwins
p3365
tp3366
a(I1683
Vbooth
p3367
tp3368
a(I1684
Vvital
p3369
tp3370
a(I1685
Vgross
p3371
tp3372
a(I1686
Vsolar
p3373
tp3374
a(I1687
Vforms
p3375
tp3376
a(I1688
Vladen
p3377
tp3378
a(I1689
Vfails
p3379
tp3380
a(I1690
Videal
p3381
tp3382
a(I1691
Vmango
p3383
tp3384
a(I1692
Vclick
p3385
tp3386
a(I1693
Vslept
p3387
tp3388
a(I1694
Vpilot
p3389
tp3390
a(I1695
Vrough
p3391
tp3392
a(I1696
Vchair
p3393
tp3394
a(I1697
Vsolve
p3395
tp3396
a(I1698
Vsalad
p3397
tp3398
a(I1699
Vquote
p3399
tp3400
a(I1700
Vdrums
p3401
tp3402
a(I1701
Vknife
p3403
tp3404
a(I1702
Vmixes
p3405
tp3406
a(I1703
Vadopt
p3407
tp3408
a(I1704
Vshine
p3409
tp3410
a(I1705
Vsalon
p3411
tp3412
a(I1706
Vskirt
p3413
tp3414
a(I1707
Vbloom
p3415
tp3416
a(I1708
Vmeals
p3417
tp3418
a(I1709
Vscoop
p3419
tp3420
a(I1710
Vcells
p3421
tp3422
a(I1711
Vglenn
p3423
tp3424
a(I1712
Vgears
p3425
tp3426
a(I1713
Vaging
p3427
tp3428
a(I1714
Veager
p3429
tp3430
a(I1715
Vscout
p3431
tp3432
a(I1716
Vfever
p3433
tp3434
a(I1717
Vworms
p3435
tp3436
a(I1718
Vouter
p3437
tp3438
a(I1719
Vlungs
p3439
tp3440
a(I1720
Vmarie
p3441
tp3442
a(I1721
Vstack
p3443
tp3444
a(I1722
Vtuned
p3445
tp3446
a(I1723
Vdalai
p3447
tp3448
a(I1724
Valert
p3449
tp3450
a(I1725
Vrings
p3451
tp3452
a(I1726
Vaudio
p3453
tp3454
a(I1727
Vgoods
p3455
tp3456
a(I1728
Vslams
p3457
tp3458
a(I1729
Vellen
p3459
tp3460
a(I1730
Vopens
p3461
tp3462
a(I1731
Vrooms
p3463
tp3464
a(I1732
Volive
p3465
tp3466
a(I1733
Vbrews
p3467
tp3468
a(I1734
Vgenes
p3469
tp3470
a(I1735
Vsuits
p3471
tp3472
a(I1736
Vclerk
p3473
tp3474
a(I1737
Vjumps
p3475
tp3476
a(I1738
Vboots
p3477
tp3478
a(I1739
Vcough
p3479
tp3480
a(I1740
Vkicks
p3481
tp3482
a(I1741
Vmunch
p3483
tp3484
a(I1742
Vdrawn
p3485
tp3486
a(I1743
Vsorta
p3487
tp3488
a(I1744
Vbasil
p3489
tp3490
a(I1745
Vvince
p3491
tp3492
a(I1746
Vsnake
p3493
tp3494
a(I1747
Vglobe
p3495
tp3496
a(I1748
Vzones
p3497
tp3498
a(I1749
Vsteam
p3499
tp3500
a(I1750
Vpeople
p3501
tp3502
a(I1751
Vshould
p3503
tp3504
a(I1752
Vbefore
p3505
tp3506
a(I1753
Vlittle
p3507
tp3508
a(I1754
Vbetter
p3509
tp3510
a(I1755
Vthanks
p3511
tp3512
a(I1756
Varound
p3513
tp3514
a(I1757
Vschool
p3515
tp3516
a(I1758
Vthings
p3517
tp3518
a(I1759
Vfollow
p3519
tp3520
a(I1760
Vseason
p3521
tp3522
a(I1761
Vthough
p3523
tp3524
a(I1762
Vplease
p3525
tp3526
a(I1763
Vmaking
p3527
tp3528
a(I1764
Vduring
p3529
tp3530
a(I1765
Vhaving
p3531
tp3532
a(I1766
Vsecond
p3533
tp3534
a(I1767
Venough
p3535
tp3536
a(I1768
Vpublic
p3537
tp3538
a(I1769
Vnumber
p3539
tp3540
a(I1770
Vperson
p3541
tp3542
a(I1771
Voffice
p3543
tp3544
a(I1772
Vpolice
p3545
tp3546
a(I1773
Vmonths
p3547
tp3548
a(I1774
Vchange
p3549
tp3550
a(I1775
Vcoming
p3551
tp3552
a(I1776
Vwanted
p3553
tp3554
a(I1777
Vothers
p3555
tp3556
a(I1778
Vmarket
p3557
tp3558
a(I1779
Vfuture
p3559
tp3560
a(I1780
Vcalled
p3561
tp3562
a(I1781
Veither
p3563
tp3564
a(I1782
Vcouple
p3565
tp3566
a(I1783
Valmost
p3567
tp3568
a(I1784
Vfriend
p3569
tp3570
a(I1785
Vcenter
p3571
tp3572
a(I1786
Vseeing
p3573
tp3574
a(I1787
Vtaking
p3575
tp3576
a(I1788
Vmatter
p3577
tp3578
a(I1789
Vrather
p3579
tp3580
a(I1790
Vrecord
p3581
tp3582
a(I1791
Vmoment
p3583
tp3584
a(I1792
Vsummer
p3585
tp3586
a(I1793
Vcourse
p3587
tp3588
a(I1794
Vbecome
p3589
tp3590
a(I1795
Vneeded
p3591
tp3592
a(I1796
Vseries
p3593
tp3594
a(I1797
Vturned
p3595
tp3596
a(I1798
Vliving
p3597
tp3598
a(I1799
Vhealth
p3599
tp3600
a(I1800
Vstrong
p3601
tp3602
a(I1801
Vmother
p3603
tp3604
a(I1802
Vformer
p3605
tp3606
a(I1803
Vpoints
p3607
tp3608
a(I1804
Vreason
p3609
tp3610
a(I1805
Vrecent
p3611
tp3612
a(I1806
Vbehind
p3613
tp3614
a(I1807
Vmoving
p3615
tp3616
a(I1808
Vstreet
p3617
tp3618
a(I1809
Vwonder
p3619
tp3620
a(I1810
Vfather
p3621
tp3622
a(I1811
Vplaces
p3623
tp3624
a(I1812
Vcreate
p3625
tp3626
a(I1813
Vonline
p3627
tp3628
a(I1814
Vitself
p3629
tp3630
a(I1815
Vsingle
p3631
tp3632
a(I1816
Ventire
p3633
tp3634
a(I1817
Vgiving
p3635
tp3636
a(I1818
Vreturn
p3637
tp3638
a(I1819
Vdinner
p3639
tp3640
a(I1820
Vacross
p3641
tp3642
a(I1821
Vchance
p3643
tp3644
a(I1822
Vissues
p3645
tp3646
a(I1823
Vinside
p3647
tp3648
a(I1824
Vevents
p3649
tp3650
a(I1825
Vlooked
p3651
tp3652
a(I1826
Vaction
p3653
tp3654
a(I1827
Vsocial
p3655
tp3656
a(I1828
Vchurch
p3657
tp3658
a(I1829
Vmiddle
p3659
tp3660
a(I1830
Vstates
p3661
tp3662
a(I1831
Vforget
p3663
tp3664
a(I1832
Vhappen
p3665
tp3666
a(I1833
Vworked
p3667
tp3668
a(I1834
Vspring
p3669
tp3670
a(I1835
Vsimple
p3671
tp3672
a(I1836
Vamount
p3673
tp3674
a(I1837
Vlisten
p3675
tp3676
a(I1838
Vanswer
p3677
tp3678
a(I1839
Vreport
p3679
tp3680
a(I1840
Vsounds
p3681
tp3682
a(I1841
Vsigned
p3683
tp3684
a(I1842
Vcoffee
p3685
tp3686
a(I1843
Vminute
p3687
tp3688
a(I1844
Vwithin
p3689
tp3690
a(I1845
Vpassed
p3691
tp3692
a(I1846
Vsister
p3693
tp3694
a(I1847
Vhoping
p3695
tp3696
a(I1848
Vwinner
p3697
tp3698
a(I1849
Vgrowth
p3699
tp3700
a(I1850
Vdesign
p3701
tp3702
a(I1851
Voregon
p3703
tp3704
a(I1852
Vlonger
p3705
tp3706
a(I1853
Vcareer
p3707
tp3708
a(I1854
Vnormal
p3709
tp3710
a(I1855
Vstupid
p3711
tp3712
a(I1856
Vseemed
p3713
tp3714
a(I1857
Vasking
p3715
tp3716
a(I1858
Veating
p3717
tp3718
a(I1859
Vunless
p3719
tp3720
a(I1860
Vmember
p3721
tp3722
a(I1861
Vchoice
p3723
tp3724
a(I1862
Vcaught
p3725
tp3726
a(I1863
Vagreed
p3727
tp3728
a(I1864
Vhigher
p3729
tp3730
a(I1865
Vwalked
p3731
tp3732
a(I1866
Vperiod
p3733
tp3734
a(I1867
Vcharge
p3735
tp3736
a(I1868
Vchoose
p3737
tp3738
a(I1869
Vsenior
p3739
tp3740
a(I1870
Vresult
p3741
tp3742
a(I1871
Vbought
p3743
tp3744
a(I1872
Vlosing
p3745
tp3746
a(I1873
Vmissed
p3747
tp3748
a(I1874
Vadvice
p3749
tp3750
a(I1875
Vwinter
p3751
tp3752
a(I1876
Vrights
p3753
tp3754
a(I1877
Vcancer
p3755
tp3756
a(I1878
Vsports
p3757
tp3758
a(I1879
Vdreams
p3759
tp3760
a(I1880
Vcommon
p3761
tp3762
a(I1881
Vkilled
p3763
tp3764
a(I1882
Vcamera
p3765
tp3766
a(I1883
Vreview
p3767
tp3768
a(I1884
Vstarts
p3769
tp3770
a(I1885
Vfinish
p3771
tp3772
a(I1886
Vhelped
p3773
tp3774
a(I1887
Vground
p3775
tp3776
a(I1888
Vimpact
p3777
tp3778
a(I1889
Vboston
p3779
tp3780
a(I1890
Vpicked
p3781
tp3782
a(I1891
Vshowed
p3783
tp3784
a(I1892
Vnature
p3785
tp3786
a(I1893
Vbudget
p3787
tp3788
a(I1894
Vlatest
p3789
tp3790
a(I1895
Vestate
p3791
tp3792
a(I1896
Vnation
p3793
tp3794
a(I1897
Vtoward
p3795
tp3796
a(I1898
Vtravel
p3797
tp3798
a(I1899
Vletter
p3799
tp3800
a(I1900
Vbigger
p3801
tp3802
a(I1901
Vgoogle
p3803
tp3804
a(I1902
Vexpect
p3805
tp3806
a(I1903
Vfilled
p3807
tp3808
a(I1904
Vgroups
p3809
tp3810
a(I1905
Voffers
p3811
tp3812
a(I1906
Vadding
p3813
tp3814
a(I1907
Vcheese
p3815
tp3816
a(I1908
Veasier
p3817
tp3818
a(I1909
Vheaven
p3819
tp3820
a(I1910
Vcredit
p3821
tp3822
a(I1911
Vbroken
p3823
tp3824
a(I1912
Vupdate
p3825
tp3826
a(I1913
Vforced
p3827
tp3828
a(I1914
Vticket
p3829
tp3830
a(I1915
Vtweets
p3831
tp3832
a(I1916
Vweight
p3833
tp3834
a(I1917
Vfigure
p3835
tp3836
a(I1918
Vfailed
p3837
tp3838
a(I1919
Vunited
p3839
tp3840
a(I1920
Vglobal
p3841
tp3842
a(I1921
Vspirit
p3843
tp3844
a(I1922
Veffort
p3845
tp3846
a(I1923
Vdoctor
p3847
tp3848
a(I1924
Vgarden
p3849
tp3850
a(I1925
Vdirect
p3851
tp3852
a(I1926
Vartist
p3853
tp3854
a(I1927
Vaugust
p3855
tp3856
a(I1928
Vrandom
p3857
tp3858
a(I1929
Vnative
p3859
tp3860
a(I1930
Vtalked
p3861
tp3862
a(I1931
Vscored
p3863
tp3864
a(I1932
Vdecide
p3865
tp3866
a(I1933
Vlevels
p3867
tp3868
a(I1934
Vclaims
p3869
tp3870
a(I1935
Vstudio
p3871
tp3872
a(I1936
Vreduce
p3873
tp3874
a(I1937
Visland
p3875
tp3876
a(I1938
Vfourth
p3877
tp3878
a(I1939
Vmodern
p3879
tp3880
a(I1940
Vphotos
p3881
tp3882
a(I1941
Vhahaha
p3883
tp3884
a(I1942
Viphone
p3885
tp3886
a(I1943
Vremain
p3887
tp3888
a(I1944
Vstores
p3889
tp3890
a(I1945
Vleague
p3891
tp3892
a(I1946
Vasleep
p3893
tp3894
a(I1947
Vaccess
p3895
tp3896
a(I1948
Vsenate
p3897
tp3898
a(I1949
Vsquare
p3899
tp3900
a(I1950
Vannual
p3901
tp3902
a(I1951
Vnights
p3903
tp3904
a(I1952
Vhandle
p3905
tp3906
a(I1953
Vgolden
p3907
tp3908
a(I1954
Vforces
p3909
tp3910
a(I1955
Vdamage
p3911
tp3912
a(I1956
Vexcuse
p3913
tp3914
a(I1957
Vheaded
p3915
tp3916
a(I1958
Vdenver
p3917
tp3918
a(I1959
Vsearch
p3919
tp3920
a(I1960
Vplants
p3921
tp3922
a(I1961
Vactual
p3923
tp3924
a(I1962
Vmanage
p3925
tp3926
a(I1963
Vleaves
p3927
tp3928
a(I1964
Vregion
p3929
tp3930
a(I1965
Vshared
p3931
tp3932
a(I1966
Vfrench
p3933
tp3934
a(I1967
Vbother
p3935
tp3936
a(I1968
Vvoters
p3937
tp3938
a(I1969
Vearned
p3939
tp3940
a(I1970
Vbaking
p3941
tp3942
a(I1971
Vfemale
p3943
tp3944
a(I1972
Vharder
p3945
tp3946
a(I1973
Vspeech
p3947
tp3948
a(I1974
Vlondon
p3949
tp3950
a(I1975
Vserved
p3951
tp3952
a(I1976
Visrael
p3953
tp3954
a(I1977
Vloving
p3955
tp3956
a(I1978
Voption
p3957
tp3958
a(I1979
Vending
p3959
tp3960
a(I1980
Vcorner
p3961
tp3962
a(I1981
Vactive
p3963
tp3964
a(I1982
Veaster
p3965
tp3966
a(I1983
Vclosed
p3967
tp3968
a(I1984
Vopened
p3969
tp3970
a(I1985
Vwriter
p3971
tp3972
a(I1986
Vrecipe
p3973
tp3974
a(I1987
Vdecent
p3975
tp3976
a(I1988
Vattack
p3977
tp3978
a(I1989
Vclient
p3979
tp3980
a(I1990
Vpasses
p3981
tp3982
a(I1991
Vauthor
p3983
tp3984
a(I1992
Vposted
p3985
tp3986
a(I1993
Vexpand
p3987
tp3988
a(I1994
Vrobert
p3989
tp3990
a(I1995
Vprofit
p3991
tp3992
a(I1996
Vhawaii
p3993
tp3994
a(I1997
Vdallas
p3995
tp3996
a(I1998
Vpowder
p3997
tp3998
a(I1999
Vnotice
p3999
tp4000
a(I2000
Vattend
p4001
tp4002
a(I2001
Vmartin
p4003
tp4004
a(I2002
Vflight
p4005
tp4006
a(I2003
Vmurder
p4007
tp4008
a(I2004
Veffect
p4009
tp4010
a(I2005
Vmovies
p4011
tp4012
a(I2006
Vtarget
p4013
tp4014
a(I2007
Vtalent
p4015
tp4016
a(I2008
Vtaught
p4017
tp4018
a(I2009
Vreader
p4019
tp4020
a(I2010
Vforgot
p4021
tp4022
a(I2011
Vcampus
p4023
tp4024
a(I2012
Vmuseum
p4025
tp4026
a(I2013
Vbutter
p4027
tp4028
a(I2014
Vspread
p4029
tp4030
a(I2015
Vowners
p4031
tp4032
a(I2016
Vgiants
p4033
tp4034
a(I2017
Vdouble
p4035
tp4036
a(I2018
Vwaited
p4037
tp4038
a(I2019
Vcounts
p4039
tp4040
a(I2020
Vandrew
p4041
tp4042
a(I2021
Vresist
p4043
tp4044
a(I2022
Vkansas
p4045
tp4046
a(I2023
Vindeed
p4047
tp4048
a(I2024
Vthinks
p4049
tp4050
a(I2025
Vbattle
p4051
tp4052
a(I2026
Vborder
p4053
tp4054
a(I2027
Vjoined
p4055
tp4056
a(I2028
Vbridge
p4057
tp4058
a(I2029
Veditor
p4059
tp4060
a(I2030
Vguitar
p4061
tp4062
a(I2031
Vimages
p4063
tp4064
a(I2032
Vacting
p4065
tp4066
a(I2033
Vcities
p4067
tp4068
a(I2034
Vprices
p4069
tp4070
a(I2035
Vsettle
p4071
tp4072
a(I2036
Vhumans
p4073
tp4074
a(I2037
Vbecame
p4075
tp4076
a(I2038
Vmiller
p4077
tp4078
a(I2039
Vmexico
p4079
tp4080
a(I2040
Vavenue
p4081
tp4082
a(I2041
Vlights
p4083
tp4084
a(I2042
Vpounds
p4085
tp4086
a(I2043
Vraised
p4087
tp4088
a(I2044
Vlakers
p4089
tp4090
a(I2045
Vplaced
p4091
tp4092
a(I2046
Vprison
p4093
tp4094
a(I2047
Vaustin
p4095
tp4096
a(I2048
Vformal
p4097
tp4098
a(I2049
Vgotten
p4099
tp4100
a(I2050
Vshower
p4101
tp4102
a(I2051
Vbottom
p4103
tp4104
a(I2052
Vpacked
p4105
tp4106
a(I2053
Vdebate
p4107
tp4108
a(I2054
Vstands
p4109
tp4110
a(I2055
Vstruck
p4111
tp4112
a(I2056
Vmedium
p4113
tp4114
a(I2057
Vbrowns
p4115
tp4116
a(I2058
Vawards
p4117
tp4118
a(I2059
Vexcept
p4119
tp4120
a(I2060
Vintent
p4121
tp4122
a(I2061
Vafford
p4123
tp4124
a(I2062
Vdegree
p4125
tp4126
a(I2063
Vmobile
p4127
tp4128
a(I2064
Vpocket
p4129
tp4130
a(I2065
Vamazed
p4131
tp4132
a(I2066
Vlaptop
p4133
tp4134
a(I2067
Vcircle
p4135
tp4136
a(I2068
Vdriver
p4137
tp4138
a(I2069
Vrising
p4139
tp4140
a(I2070
Vtavern
p4141
tp4142
a(I2071
Vcrisis
p4143
tp4144
a(I2072
Veurope
p4145
tp4146
a(I2073
Vstrike
p4147
tp4148
a(I2074
Vdollar
p4149
tp4150
a(I2075
Vwilson
p4151
tp4152
a(I2076
Vdemand
p4153
tp4154
a(I2077
Vanimal
p4155
tp4156
a(I2078
Vbutton
p4157
tp4158
a(I2079
Vbabies
p4159
tp4160
a(I2080
Vtigers
p4161
tp4162
a(I2081
Vwindow
p4163
tp4164
a(I2082
Vshares
p4165
tp4166
a(I2083
Vappear
p4167
tp4168
a(I2084
Vdrinks
p4169
tp4170
a(I2085
Vgeorge
p4171
tp4172
a(I2086
Vrescue
p4173
tp4174
a(I2087
Vcolors
p4175
tp4176
a(I2088
Vvision
p4177
tp4178
a(I2089
Vmotion
p4179
tp4180
a(I2090
Vvideos
p4181
tp4182
a(I2091
Vlaunch
p4183
tp4184
a(I2092
Vproper
p4185
tp4186
a(I2093
Vguards
p4187
tp4188
a(I2094
Vreform
p4189
tp4190
a(I2095
Vcaused
p4191
tp4192
a(I2096
Vflower
p4193
tp4194
a(I2097
Vscreen
p4195
tp4196
a(I2098
Vhouses
p4197
tp4198
a(I2099
Vfrozen
p4199
tp4200
a(I2100
Vskills
p4201
tp4202
a(I2101
Vgerman
p4203
tp4204
a(I2102
Vleader
p4205
tp4206
a(I2103
Vactors
p4207
tp4208
a(I2104
Vlisted
p4209
tp4210
a(I2105
Vsalmon
p4211
tp4212
a(I2106
Vblocks
p4213
tp4214
a(I2107
Vdakota
p4215
tp4216
a(I2108
Vcloser
p4217
tp4218
a(I2109
Vhoward
p4219
tp4220
a(I2110
Vforest
p4221
tp4222
a(I2111
Vmaster
p4223
tp4224
a(I2112
Vbranch
p4225
tp4226
a(I2113
Vsucked
p4227
tp4228
a(I2114
Vinning
p4229
tp4230
a(I2115
Vstatus
p4231
tp4232
a(I2116
Vfields
p4233
tp4234
a(I2117
Vflavor
p4235
tp4236
a(I2118
Vpieces
p4237
tp4238
a(I2119
Vsaving
p4239
tp4240
a(I2120
Vhunger
p4241
tp4242
a(I2121
Vthomas
p4243
tp4244
a(I2122
Vlosses
p4245
tp4246
a(I2123
Vgarage
p4247
tp4248
a(I2124
Vsource
p4249
tp4250
a(I2125
Vriding
p4251
tp4252
a(I2126
Vallows
p4253
tp4254
a(I2127
Vdefeat
p4255
tp4256
a(I2128
Vfaster
p4257
tp4258
a(I2129
Vjewish
p4259
tp4260
a(I2130
Vdishes
p4261
tp4262
a(I2131
Vjunior
p4263
tp4264
a(I2132
Vhonest
p4265
tp4266
a(I2133
Vstamps
p4267
tp4268
a(I2134
Vunique
p4269
tp4270
a(I2135
Vfoster
p4271
tp4272
a(I2136
Vbubble
p4273
tp4274
a(I2137
Vcolour
p4275
tp4276
a(I2138
Vdating
p4277
tp4278
a(I2139
Vkiller
p4279
tp4280
a(I2140
Vbasket
p4281
tp4282
a(I2141
Vnewark
p4283
tp4284
a(I2142
Vwright
p4285
tp4286
a(I2143
Vprefer
p4287
tp4288
a(I2144
Vsinger
p4289
tp4290
a(I2145
Vladies
p4291
tp4292
a(I2146
Vbureau
p4293
tp4294
a(I2147
Vpapers
p4295
tp4296
a(I2148
Vmodels
p4297
tp4298
a(I2149
Vbelief
p4299
tp4300
a(I2150
Vtracks
p4301
tp4302
a(I2151
Vbodies
p4303
tp4304
a(I2152
Vrussia
p4305
tp4306
a(I2153
Vsignal
p4307
tp4308
a(I2154
Vpurple
p4309
tp4310
a(I2155
Vassume
p4311
tp4312
a(I2156
Vsoccer
p4313
tp4314
a(I2157
Vdining
p4315
tp4316
a(I2158
Vtravis
p4317
tp4318
a(I2159
Vblazer
p4319
tp4320
a(I2160
Vafghan
p4321
tp4322
a(I2161
Vguests
p4323
tp4324
a(I2162
Vpowers
p4325
tp4326
a(I2163
Vaccept
p4327
tp4328
a(I2164
Vpulled
p4329
tp4330
a(I2165
Vsenses
p4331
tp4332
a(I2166
Vsights
p4333
tp4334
a(I2167
Vagents
p4335
tp4336
a(I2168
Vlatter
p4337
tp4338
a(I2169
Vbegins
p4339
tp4340
a(I2170
Vlimits
p4341
tp4342
a(I2171
Vformed
p4343
tp4344
a(I2172
Vbottle
p4345
tp4346
a(I2173
Vgarlic
p4347
tp4348
a(I2174
Vpraise
p4349
tp4350
a(I2175
Vgreece
p4351
tp4352
a(I2176
Vduties
p4353
tp4354
a(I2177
Vmental
p4355
tp4356
a(I2178
Vcrimes
p4357
tp4358
a(I2179
Vexpert
p4359
tp4360
a(I2180
Vgentle
p4361
tp4362
a(I2181
Varrive
p4363
tp4364
a(I2182
Vincome
p4365
tp4366
a(I2183
Vstreak
p4367
tp4368
a(I2184
Vsecret
p4369
tp4370
a(I2185
Vpepper
p4371
tp4372
a(I2186
Vgenius
p4373
tp4374
a(I2187
Vreveal
p4375
tp4376
a(I2188
Vvisits
p4377
tp4378
a(I2189
Vvolume
p4379
tp4380
a(I2190
Vangels
p4381
tp4382
a(I2191
Vcancel
p4383
tp4384
a(I2192
Vlarger
p4385
tp4386
a(I2193
Vboring
p4387
tp4388
a(I2194
Vcasino
p4389
tp4390
a(I2195
Vafraid
p4391
tp4392
a(I2196
Vcopies
p4393
tp4394
a(I2197
Vcheers
p4395
tp4396
a(I2198
Vdriven
p4397
tp4398
a(I2199
Vrecall
p4399
tp4400
a(I2200
Vbright
p4401
tp4402
a(I2201
Vbrands
p4403
tp4404
a(I2202
Vorders
p4405
tp4406
a(I2203
Vwalker
p4407
tp4408
a(I2204
Vbreath
p4409
tp4410
a(I2205
Vdoesnt
p4411
tp4412
a(I2206
Vprizes
p4413
tp4414
a(I2207
Vselect
p4415
tp4416
a(I2208
Vcaring
p4417
tp4418
a(I2209
Vremove
p4419
tp4420
a(I2210
Vgospel
p4421
tp4422
a(I2211
Vmethod
p4423
tp4424
a(I2212
Vdetail
p4425
tp4426
a(I2213
Vlowest
p4427
tp4428
a(I2214
Vboxing
p4429
tp4430
a(I2215
Vchrist
p4431
tp4432
a(I2216
Vinches
p4433
tp4434
a(I2217
Vmorgan
p4435
tp4436
a(I2218
Vposter
p4437
tp4438
a(I2219
Vslight
p4439
tp4440
a(I2220
Vjustin
p4441
tp4442
a(I2221
Vmessed
p4443
tp4444
a(I2222
Vtopped
p4445
tp4446
a(I2223
Vdivine
p4447
tp4448
a(I2224
Vsmells
p4449
tp4450
a(I2225
Vclinic
p4451
tp4452
a(I2226
Vamazon
p4453
tp4454
a(I2227
Vwashed
p4455
tp4456
a(I2228
Vwrites
p4457
tp4458
a(I2229
Vethnic
p4459
tp4460
a(I2230
Vvictim
p4461
tp4462
a(I2231
Vfamous
p4463
tp4464
a(I2232
Vescape
p4465
tp4466
a(I2233
Vfixing
p4467
tp4468
a(I2234
Vlineup
p4469
tp4470
a(I2235
Vbreaks
p4471
tp4472
a(I2236
Vpoised
p4473
tp4474
a(I2237
Vscream
p4475
tp4476
a(I2238
Vsmooth
p4477
tp4478
a(I2239
Vstream
p4479
tp4480
a(I2240
Vloaded
p4481
tp4482
a(I2241
Vsudden
p4483
tp4484
a(I2242
Vplanet
p4485
tp4486
a(I2243
Vfiscal
p4487
tp4488
a(I2244
Vonions
p4489
tp4490
a(I2245
Vshrimp
p4491
tp4492
a(I2246
Vstring
p4493
tp4494
a(I2247
Vponder
p4495
tp4496
a(I2248
Vphones
p4497
tp4498
a(I2249
Vginger
p4499
tp4500
a(I2250
Vgained
p4501
tp4502
a(I2251
Vchosen
p4503
tp4504
a(I2252
Vwhilst
p4505
tp4506
a(I2253
Vstress
p4507
tp4508
a(I2254
Vbadass
p4509
tp4510
a(I2255
Vlasted
p4511
tp4512
a(I2256
Vorange
p4513
tp4514
a(I2257
Vfacing
p4515
tp4516
a(I2258
Voldest
p4517
tp4518
a(I2259
Vcanada
p4519
tp4520
a(I2260
Vtattoo
p4521
tp4522
a(I2261
Vswitch
p4523
tp4524
a(I2262
Vthrown
p4525
tp4526
a(I2263
Vfallen
p4527
tp4528
a(I2264
Vfrance
p4529
tp4530
a(I2265
Vhotels
p4531
tp4532
a(I2266
Vdesire
p4533
tp4534
a(I2267
Vbatman
p4535
tp4536
a(I2268
Vjumped
p4537
tp4538
a(I2269
Vrating
p4539
tp4540
a(I2270
Vbooked
p4541
tp4542
a(I2271
Vparent
p4543
tp4544
a(I2272
Vracist
p4545
tp4546
a(I2273
Vdevice
p4547
tp4548
a(I2274
Vhiring
p4549
tp4550
a(I2275
Vtrucks
p4551
tp4552
a(I2276
Vvoices
p4553
tp4554
a(I2277
Vafrica
p4555
tp4556
a(I2278
Vliquid
p4557
tp4558
a(I2279
Vproved
p4559
tp4560
a(I2280
Vroster
p4561
tp4562
a(I2281
Vaffect
p4563
tp4564
a(I2282
Vtackle
p4565
tp4566
a(I2283
Vunlike
p4567
tp4568
a(I2284
Vpriced
p4569
tp4570
a(I2285
Vrumors
p4571
tp4572
a(I2286
Vdozens
p4573
tp4574
a(I2287
Vslices
p4575
tp4576
a(I2288
Vtables
p4577
tp4578
a(I2289
Vfiling
p4579
tp4580
a(I2290
Vmotors
p4581
tp4582
a(I2291
Vfridge
p4583
tp4584
a(I2292
Vwheels
p4585
tp4586
a(I2293
Vcauses
p4587
tp4588
a(I2294
Vprince
p4589
tp4590
a(I2295
Varrest
p4591
tp4592
a(I2296
Vupside
p4593
tp4594
a(I2297
Vpreach
p4595
tp4596
a(I2298
Vdenied
p4597
tp4598
a(I2299
Vtiming
p4599
tp4600
a(I2300
Vindoor
p4601
tp4602
a(I2301
Vwealth
p4603
tp4604
a(I2302
Vunable
p4605
tp4606
a(I2303
Vremind
p4607
tp4608
a(I2304
Vsliced
p4609
tp4610
a(I2305
Vtheirs
p4611
tp4612
a(I2306
Vshadow
p4613
tp4614
a(I2307
Vcookie
p4615
tp4616
a(I2308
Vravens
p4617
tp4618
a(I2309
Vcarpet
p4619
tp4620
a(I2310
Vcolumn
p4621
tp4622
a(I2311
Vstairs
p4623
tp4624
a(I2312
Vformat
p4625
tp4626
a(I2313
Vrapper
p4627
tp4628
a(I2314
Vhooked
p4629
tp4630
a(I2315
Vmirror
p4631
tp4632
a(I2316
Vdaniel
p4633
tp4634
a(I2317
Vunfold
p4635
tp4636
a(I2318
Vmizzou
p4637
tp4638
a(I2319
Vsexual
p4639
tp4640
a(I2320
Vrabbit
p4641
tp4642
a(I2321
Vbarrel
p4643
tp4644
a(I2322
Vdefend
p4645
tp4646
a(I2323
Vbarack
p4647
tp4648
a(I2324
Vseated
p4649
tp4650
a(I2325
Vchains
p4651
tp4652
a(I2326
Vvocals
p4653
tp4654
a(I2327
Vfruits
p4655
tp4656
a(I2328
Vfactor
p4657
tp4658
a(I2329
Vsilver
p4659
tp4660
a(I2330
Vgallon
p4661
tp4662
a(I2331
Vfierce
p4663
tp4664
a(I2332
Vpalace
p4665
tp4666
a(I2333
Vaboard
p4667
tp4668
a(I2334
Vcrowds
p4669
tp4670
a(I2335
Vapples
p4671
tp4672
a(I2336
Vbrings
p4673
tp4674
a(I2337
Vpursue
p4675
tp4676
a(I2338
Vgreens
p4677
tp4678
a(I2339
Vfisher
p4679
tp4680
a(I2340
Vsketch
p4681
tp4682
a(I2341
Vdesert
p4683
tp4684
a(I2342
Vvoting
p4685
tp4686
a(I2343
Vcommit
p4687
tp4688
a(I2344
Varthur
p4689
tp4690
a(I2345
Vcooker
p4691
tp4692
a(I2346
Vcooked
p4693
tp4694
a(I2347
Vrookie
p4695
tp4696
a(I2348
Vretail
p4697
tp4698
a(I2349
Vdeeper
p4699
tp4700
a(I2350
Vtreats
p4701
tp4702
a(I2351
Vwishes
p4703
tp4704
a(I2352
Vexpose
p4705
tp4706
a(I2353
Vlocker
p4707
tp4708
a(I2354
Vsmiles
p4709
tp4710
a(I2355
Vresume
p4711
tp4712
a(I2356
Vtitles
p4713
tp4714
a(I2357
Vteresa
p4715
tp4716
a(I2358
Vtoilet
p4717
tp4718
a(I2359
Vviewed
p4719
tp4720
a(I2360
Vimmune
p4721
tp4722
a(I2361
Vsuffer
p4723
tp4724
a(I2362
Vorigin
p4725
tp4726
a(I2363
Vrubber
p4727
tp4728
a(I2364
Vpastor
p4729
tp4730
a(I2365
Vgossip
p4731
tp4732
a(I2366
Vcustom
p4733
tp4734
a(I2367
Vsheets
p4735
tp4736
a(I2368
Vgettin
p4737
tp4738
a(I2369
Vpacers
p4739
tp4740
a(I2370
Vlocked
p4741
tp4742
a(I2371
Vhelmet
p4743
tp4744
a(I2372
Vpriest
p4745
tp4746
a(I2373
Vsubmit
p4747
tp4748
a(I2374
Vpissed
p4749
tp4750
a(I2375
Vissued
p4751
tp4752
a(I2376
Vlatino
p4753
tp4754
a(I2377
Vfinale
p4755
tp4756
a(I2378
Vharbor
p4757
tp4758
a(I2379
Vracism
p4759
tp4760
a(I2380
Vsimmer
p4761
tp4762
a(I2381
Vclarke
p4763
tp4764
a(I2382
Vtraded
p4765
tp4766
a(I2383
Vporter
p4767
tp4768
a(I2384
Vsector
p4769
tp4770
a(I2385
Vriders
p4771
tp4772
a(I2386
Vvisual
p4773
tp4774
a(I2387
Vjordan
p4775
tp4776
a(I2388
Vpushed
p4777
tp4778
a(I2389
Vscheme
p4779
tp4780
a(I2390
Vreward
p4781
tp4782
a(I2391
Vhearts
p4783
tp4784
a(I2392
Vtrains
p4785
tp4786
a(I2393
Vrelief
p4787
tp4788
a(I2394
Vmargin
p4789
tp4790
a(I2395
Vknicks
p4791
tp4792
a(I2396
Vvalues
p4793
tp4794
a(I2397
Vlength
p4795
tp4796
a(I2398
Vbucket
p4797
tp4798
a(I2399
Vhiding
p4799
tp4800
a(I2400
Vrepeat
p4801
tp4802
a(I2401
Vcarter
p4803
tp4804
a(I2402
Vlocals
p4805
tp4806
a(I2403
Vhunter
p4807
tp4808
a(I2404
Vmarcus
p4809
tp4810
a(I2405
Vstable
p4811
tp4812
a(I2406
Vjoseph
p4813
tp4814
a(I2407
Vscores
p4815
tp4816
a(I2408
Vnephew
p4817
tp4818
a(I2409
Vresort
p4819
tp4820
a(I2410
Vhorrid
p4821
tp4822
a(I2411
Vserves
p4823
tp4824
a(I2412
Vracing
p4825
tp4826
a(I2413
Vedited
p4827
tp4828
a(I2414
Vagenda
p4829
tp4830
a(I2415
Vdragon
p4831
tp4832
a(I2416
Vdecade
p4833
tp4834
a(I2417
Vsought
p4835
tp4836
a(I2418
Vregime
p4837
tp4838
a(I2419
Vturner
p4839
tp4840
a(I2420
Vappeal
p4841
tp4842
a(I2421
Vdamned
p4843
tp4844
a(I2422
Vdiving
p4845
tp4846
a(I2423
Vinsane
p4847
tp4848
a(I2424
Vassess
p4849
tp4850
a(I2425
Vpuerto
p4851
tp4852
a(I2426
Vfuckin
p4853
tp4854
a(I2427
Vcereal
p4855
tp4856
a(I2428
Vwhites
p4857
tp4858
a(I2429
Vsecure
p4859
tp4860
a(I2430
Vwisdom
p4861
tp4862
a(I2431
Vvaried
p4863
tp4864
a(I2432
Vtroops
p4865
tp4866
a(I2433
Vladder
p4867
tp4868
a(I2434
Vclinch
p4869
tp4870
a(I2435
Vstraws
p4871
tp4872
a(I2436
Vclaire
p4873
tp4874
a(I2437
Vindian
p4875
tp4876
a(I2438
Vcactus
p4877
tp4878
a(I2439
Vabused
p4879
tp4880
a(I2440
Vsplash
p4881
tp4882
a(I2441
Vgunman
p4883
tp4884
a(I2442
Vlifted
p4885
tp4886
a(I2443
Vhosted
p4887
tp4888
a(I2444
Vtrials
p4889
tp4890
a(I2445
Vengage
p4891
tp4892
a(I2446
Vtongue
p4893
tp4894
a(I2447
Vfights
p4895
tp4896
a(I2448
Vmarrow
p4897
tp4898
a(I2449
Vwarned
p4899
tp4900
a(I2450
Vciting
p4901
tp4902
a(I2451
Vinfant
p4903
tp4904
a(I2452
Vpatron
p4905
tp4906
a(I2453
Vpopped
p4907
tp4908
a(I2454
Voppose
p4909
tp4910
a(I2455
Vedison
p4911
tp4912
a(I2456
Vcruise
p4913
tp4914
a(I2457
Vgender
p4915
tp4916
a(I2458
Vjacket
p4917
tp4918
a(I2459
Vrepair
p4919
tp4920
a(I2460
Vmoscow
p4921
tp4922
a(I2461
Vinvite
p4923
tp4924
a(I2462
Vpierce
p4925
tp4926
a(I2463
Vdonate
p4927
tp4928
a(I2464
Vtriple
p4929
tp4930
a(I2465
Vchairs
p4931
tp4932
a(I2466
Vparade
p4933
tp4934
a(I2467
Vmaiden
p4935
tp4936
a(I2468
Vkorean
p4937
tp4938
a(I2469
Vawhile
p4939
tp4940
a(I2470
Vcovers
p4941
tp4942
a(I2471
Vweirdo
p4943
tp4944
a(I2472
Vargued
p4945
tp4946
a(I2473
Vsooner
p4947
tp4948
a(I2474
Vbounce
p4949
tp4950
a(I2475
Vchorus
p4951
tp4952
a(I2476
Vclever
p4953
tp4954
a(I2477
Vexotic
p4955
tp4956
a(I2478
Vsmoked
p4957
tp4958
a(I2479
Vrachel
p4959
tp4960
a(I2480
Vsoaked
p4961
tp4962
a(I2481
Vburden
p4963
tp4964
a(I2482
Vtemple
p4965
tp4966
a(I2483
Vtender
p4967
tp4968
a(I2484
Vgordon
p4969
tp4970
a(I2485
Vafloat
p4971
tp4972
a(I2486
Vscenes
p4973
tp4974
a(I2487
Vharden
p4975
tp4976
a(I2488
Vbeaten
p4977
tp4978
a(I2489
Vfolder
p4979
tp4980
a(I2490
Vgrants
p4981
tp4982
a(I2491
Vdemons
p4983
tp4984
a(I2492
Vdoubts
p4985
tp4986
a(I2493
Voutfit
p4987
tp4988
a(I2494
Vbreast
p4989
tp4990
a(I2495
Vpeanut
p4991
tp4992
a(I2496
Vsesame
p4993
tp4994
a(I2497
Vchecks
p4995
tp4996
a(I2498
Vreggie
p4997
tp4998
a(I2499
Vdanger
p4999
tp5000
a(I2500
Vbecause
p5001
tp5002
a(I2501
Vthrough
p5003
tp5004
a(I2502
Vgetting
p5005
tp5006
a(I2503
Vanother
p5007
tp5008
a(I2504
Vthought
p5009
tp5010
a(I2505
Vtonight
p5011
tp5012
a(I2506
Vmillion
p5013
tp5014
a(I2507
Vagainst
p5015
tp5016
a(I2508
Vfriends
p5017
tp5018
a(I2509
Vwithout
p5019
tp5020
a(I2510
Vlooking
p5021
tp5022
a(I2511
Vsomeone
p5023
tp5024
a(I2512
Vpercent
p5025
tp5026
a(I2513
Vworking
p5027
tp5028
a(I2514
Vbetween
p5029
tp5030
a(I2515
Vmorning
p5031
tp5032
a(I2516
Vnothing
p5033
tp5034
a(I2517
Vsupport
p5035
tp5036
a(I2518
Vminutes
p5037
tp5038
a(I2519
Vweekend
p5039
tp5040
a(I2520
Vstarted
p5041
tp5042
a(I2521
Vseveral
p5043
tp5044
a(I2522
Vbelieve
p5045
tp5046
a(I2523
Vtwitter
p5047
tp5048
a(I2524
Vmeeting
p5049
tp5050
a(I2525
Voutside
p5051
tp5052
a(I2526
Vreading
p5053
tp5054
a(I2527
Vwhether
p5055
tp5056
a(I2528
Vforward
p5057
tp5058
a(I2529
Vamazing
p5059
tp5060
a(I2530
Vawesome
p5061
tp5062
a(I2531
Vfeeling
p5063
tp5064
a(I2532
Vrunning
p5065
tp5066
a(I2533
Vdecided
p5067
tp5068
a(I2534
Vexcited
p5069
tp5070
a(I2535
Vwelcome
p5071
tp5072
a(I2536
Vspecial
p5073
tp5074
a(I2537
Vfederal
p5075
tp5076
a(I2538
Vservice
p5077
tp5078
a(I2539
Vperfect
p5079
tp5080
a(I2540
Vmembers
p5081
tp5082
a(I2541
Vwriting
p5083
tp5084
a(I2542
Vinstead
p5085
tp5086
a(I2543
Vhusband
p5087
tp5088
a(I2544
Vcollege
p5089
tp5090
a(I2545
Vproject
p5091
tp5092
a(I2546
Vprogram
p5093
tp5094
a(I2547
Vworkers
p5095
tp5096
a(I2548
Vbrother
p5097
tp5098
a(I2549
Vbrought
p5099
tp5100
a(I2550
Vprocess
p5101
tp5102
a(I2551
Vtalking
p5103
tp5104
a(I2552
Vbillion
p5105
tp5106
a(I2553
Vchicago
p5107
tp5108
a(I2554
Vamerica
p5109
tp5110
a(I2555
Vwatched
p5111
tp5112
a(I2556
Vcurrent
p5113
tp5114
a(I2557
Vproblem
p5115
tp5116
a(I2558
Vhimself
p5117
tp5118
a(I2559
Vwebsite
p5119
tp5120
a(I2560
Vperhaps
p5121
tp5122
a(I2561
Vaverage
p5123
tp5124
a(I2562
Vearlier
p5125
tp5126
a(I2563
Vpicture
p5127
tp5128
a(I2564
Vschools
p5129
tp5130
a(I2565
Vwritten
p5131
tp5132
a(I2566
Vprivate
p5133
tp5134
a(I2567
Vwaiting
p5135
tp5136
a(I2568
Vinclude
p5137
tp5138
a(I2569
Vcertain
p5139
tp5140
a(I2570
Vhappens
p5141
tp5142
a(I2571
Vparents
p5143
tp5144
a(I2572
Vsimilar
p5145
tp5146
a(I2573
Vdriving
p5147
tp5148
a(I2574
Vfurther
p5149
tp5150
a(I2575
Vevening
p5151
tp5152
a(I2576
Vmedical
p5153
tp5154
a(I2577
Vopening
p5155
tp5156
a(I2578
Vstudent
p5157
tp5158
a(I2579
Vfreedom
p5159
tp5160
a(I2580
Vchanged
p5161
tp5162
a(I2581
Vgeneral
p5163
tp5164
a(I2582
Vmention
p5165
tp5166
a(I2583
Vchicken
p5167
tp5168
a(I2584
Vcentral
p5169
tp5170
a(I2585
Vcontrol
p5171
tp5172
a(I2586
Vdetails
p5173
tp5174
a(I2587
Vcomment
p5175
tp5176
a(I2588
Vcreated
p5177
tp5178
a(I2589
Vdespite
p5179
tp5180
a(I2590
Vshowing
p5181
tp5182
a(I2591
Vsitting
p5183
tp5184
a(I2592
Vallowed
p5185
tp5186
a(I2593
Vversion
p5187
tp5188
a(I2594
Vstation
p5189
tp5190
a(I2595
Vwalking
p5191
tp5192
a(I2596
Vstories
p5193
tp5194
a(I2597
Vcouncil
p5195
tp5196
a(I2598
Vlearned
p5197
tp5198
a(I2599
Vmessage
p5199
tp5200
a(I2600
Vtraffic
p5201
tp5202
a(I2601
Vmichael
p5203
tp5204
a(I2602
Vmissing
p5205
tp5206
a(I2603
Vprovide
p5207
tp5208
a(I2604
Vimagine
p5209
tp5210
a(I2605
Varticle
p5211
tp5212
a(I2606
Vtickets
p5213
tp5214
a(I2607
Vweather
p5215
tp5216
a(I2608
Vpresent
p5217
tp5218
a(I2609
Vexample
p5219
tp5220
a(I2610
Vnetwork
p5221
tp5222
a(I2611
Vsharing
p5223
tp5224
a(I2612
Vputting
p5225
tp5226
a(I2613
Vkitchen
p5227
tp5228
a(I2614
Vteacher
p5229
tp5230
a(I2615
Vnatural
p5231
tp5232
a(I2616
Vregular
p5233
tp5234
a(I2617
Vrealize
p5235
tp5236
a(I2618
Vreasons
p5237
tp5238
a(I2619
Vchinese
p5239
tp5240
a(I2620
Vdefense
p5241
tp5242
a(I2621
Vseattle
p5243
tp5244
a(I2622
Vartists
p5245
tp5246
a(I2623
Vstrange
p5247
tp5248
a(I2624
Vbiggest
p5249
tp5250
a(I2625
Vstopped
p5251
tp5252
a(I2626
Vreports
p5253
tp5254
a(I2627
Vresults
p5255
tp5256
a(I2628
Vspanish
p5257
tp5258
a(I2629
Vimprove
p5259
tp5260
a(I2630
Vleaders
p5261
tp5262
a(I2631
Vaccount
p5263
tp5264
a(I2632
Vclasses
p5265
tp5266
a(I2633
Vsubject
p5267
tp5268
a(I2634
Vnumbers
p5269
tp5270
a(I2635
Vproduct
p5271
tp5272
a(I2636
Vserving
p5273
tp5274
a(I2637
Vjustice
p5275
tp5276
a(I2638
Vfucking
p5277
tp5278
a(I2639
Vmassive
p5279
tp5280
a(I2640
Vcovered
p5281
tp5282
a(I2641
Vcharged
p5283
tp5284
a(I2642
Vvarious
p5285
tp5286
a(I2643
Vdiscuss
p5287
tp5288
a(I2644
Vhearing
p5289
tp5290
a(I2645
Vheading
p5291
tp5292
a(I2646
Vbritish
p5293
tp5294
a(I2647
Vsection
p5295
tp5296
a(I2648
Vtrouble
p5297
tp5298
a(I2649
Vwinning
p5299
tp5300
a(I2650
Vgrowing
p5301
tp5302
a(I2651
Vclassic
p5303
tp5304
a(I2652
Vquarter
p5305
tp5306
a(I2653
Vclients
p5307
tp5308
a(I2654
Vmanager
p5309
tp5310
a(I2655
Vselling
p5311
tp5312
a(I2656
Vhelping
p5313
tp5314
a(I2657
Vpopular
p5315
tp5316
a(I2658
Vserious
p5317
tp5318
a(I2659
Vsuccess
p5319
tp5320
a(I2660
Vrecords
p5321
tp5322
a(I2661
Vwestern
p5323
tp5324
a(I2662
Vatlanta
p5325
tp5326
a(I2663
Vcharges
p5327
tp5328
a(I2664
Vmanaged
p5329
tp5330
a(I2665
Vmothers
p5331
tp5332
a(I2666
Vleading
p5333
tp5334
a(I2667
Venglish
p5335
tp5336
a(I2668
Vkeeping
p5337
tp5338
a(I2669
Vlargest
p5339
tp5340
a(I2670
Vleaving
p5341
tp5342
a(I2671
Vangeles
p5343
tp5344
a(I2672
Vsuspect
p5345
tp5346
a(I2673
Vturning
p5347
tp5348
a(I2674
Vnowhere
p5349
tp5350
a(I2675
Vdigital
p5351
tp5352
a(I2676
Vpromise
p5353
tp5354
a(I2677
Vfashion
p5355
tp5356
a(I2678
Vworried
p5357
tp5358
a(I2679
Vbenefit
p5359
tp5360
a(I2680
Voctober
p5361
tp5362
a(I2681
Vfinding
p5363
tp5364
a(I2682
Vdollars
p5365
tp5366
a(I2683
Vreceive
p5367
tp5368
a(I2684
Vpattern
p5369
tp5370
a(I2685
Vtowards
p5371
tp5372
a(I2686
Vwilliam
p5373
tp5374
a(I2687
Vgreater
p5375
tp5376
a(I2688
Vmeaning
p5377
tp5378
a(I2689
Vcalling
p5379
tp5380
a(I2690
Vforeign
p5381
tp5382
a(I2691
Vobvious
p5383
tp5384
a(I2692
Vdoctors
p5385
tp5386
a(I2693
Vneither
p5387
tp5388
a(I2694
Vofficer
p5389
tp5390
a(I2695
Vtheater
p5391
tp5392
a(I2696
Vsending
p5393
tp5394
a(I2697
Vculture
p5395
tp5396
a(I2698
Vreached
p5397
tp5398
a(I2699
Vwearing
p5399
tp5400
a(I2700
Vorlando
p5401
tp5402
a(I2701
Vchanges
p5403
tp5404
a(I2702
Vfocused
p5405
tp5406
a(I2703
Vfeature
p5407
tp5408
a(I2704
Vknowing
p5409
tp5410
a(I2705
Vopinion
p5411
tp5412
a(I2706
Vactions
p5413
tp5414
a(I2707
Vremains
p5415
tp5416
a(I2708
Vefforts
p5417
tp5418
a(I2709
Vproduce
p5419
tp5420
a(I2710
Vcomplex
p5421
tp5422
a(I2711
Vfalling
p5423
tp5424
a(I2712
Vaddress
p5425
tp5426
a(I2713
Vkilling
p5427
tp5428
a(I2714
Vairport
p5429
tp5430
a(I2715
Vdropped
p5431
tp5432
a(I2716
Vpicking
p5433
tp5434
a(I2717
Vpartner
p5435
tp5436
a(I2718
Varrived
p5437
tp5438
a(I2719
Vvillage
p5439
tp5440
a(I2720
Vmoments
p5441
tp5442
a(I2721
Vholding
p5443
tp5444
a(I2722
Vsession
p5445
tp5446
a(I2723
Vflowers
p5447
tp5448
a(I2724
Vforever
p5449
tp5450
a(I2725
Vrelated
p5451
tp5452
a(I2726
Vhitting
p5453
tp5454
a(I2727
Vtrading
p5455
tp5456
a(I2728
Vwilling
p5457
tp5458
a(I2729
Vdeliver
p5459
tp5460
a(I2730
Vdetroit
p5461
tp5462
a(I2731
Vappears
p5463
tp5464
a(I2732
Vwinners
p5465
tp5466
a(I2733
Vseeking
p5467
tp5468
a(I2734
Vbecomes
p5469
tp5470
a(I2735
Vsetting
p5471
tp5472
a(I2736
Vpleased
p5473
tp5474
a(I2737
Vcontent
p5475
tp5476
a(I2738
Vwriters
p5477
tp5478
a(I2739
Vparking
p5479
tp5480
a(I2740
Veffects
p5481
tp5482
a(I2741
Veastern
p5483
tp5484
a(I2742
Vcenters
p5485
tp5486
a(I2743
Vstadium
p5487
tp5488
a(I2744
Voptions
p5489
tp5490
a(I2745
Vattempt
p5491
tp5492
a(I2746
Vitalian
p5493
tp5494
a(I2747
Vwedding
p5495
tp5496
a(I2748
Vhouston
p5497
tp5498
a(I2749
Vveteran
p5499
tp5500
a(I2750
Vconcept
p5501
tp5502
a(I2751
Voverall
p5503
tp5504
a(I2752
Voffered
p5505
tp5506
a(I2753
Vconcert
p5507
tp5508
a(I2754
Vengaged
p5509
tp5510
a(I2755
Vvictims
p5511
tp5512
a(I2756
Vteenage
p5513
tp5514
a(I2757
Vawkward
p5515
tp5516
a(I2758
Vseasons
p5517
tp5518
a(I2759
Vdisease
p5519
tp5520
a(I2760
Vheights
p5521
tp5522
a(I2761
Vcurious
p5523
tp5524
a(I2762
Vclosing
p5525
tp5526
a(I2763
Vvisited
p5527
tp5528
a(I2764
Vpurpose
p5529
tp5530
a(I2765
Voakland
p5531
tp5532
a(I2766
Vlocated
p5533
tp5534
a(I2767
Varizona
p5535
tp5536
a(I2768
Vhousing
p5537
tp5538
a(I2769
Vhandful
p5539
tp5540
a(I2770
Vflorida
p5541
tp5542
a(I2771
Vdecades
p5543
tp5544
a(I2772
Vrespect
p5545
tp5546
a(I2773
Vlimited
p5547
tp5548
a(I2774
Vraising
p5549
tp5550
a(I2775
Vrelease
p5551
tp5552
a(I2776
Vattacks
p5553
tp5554
a(I2777
Vwarning
p5555
tp5556
a(I2778
Vepisode
p5557
tp5558
a(I2779
Vcontest
p5559
tp5560
a(I2780
Vprevent
p5561
tp5562
a(I2781
Vaspects
p5563
tp5564
a(I2782
Vfiction
p5565
tp5566
a(I2783
Vsurvive
p5567
tp5568
a(I2784
Vstreets
p5569
tp5570
a(I2785
Vrequire
p5571
tp5572
a(I2786
Vfigures
p5573
tp5574
a(I2787
Vsheriff
p5575
tp5576
a(I2788
Vcontact
p5577
tp5578
a(I2789
Vreplace
p5579
tp5580
a(I2790
Vcooking
p5581
tp5582
a(I2791
Vwishing
p5583
tp5584
a(I2792
Vindiana
p5585
tp5586
a(I2793
Vprepare
p5587
tp5588
a(I2794
Vfailure
p5589
tp5590
a(I2795
Vworkout
p5591
tp5592
a(I2796
Vcharles
p5593
tp5594
a(I2797
Vplanned
p5595
tp5596
a(I2798
Vnoticed
p5597
tp5598
a(I2799
Voffense
p5599
tp5600
a(I2800
Vaffairs
p5601
tp5602
a(I2801
Vhanging
p5603
tp5604
a(I2802
Vcausing
p5605
tp5606
a(I2803
Vstamped
p5607
tp5608
a(I2804
Vviewers
p5609
tp5610
a(I2805
Vscandal
p5611
tp5612
a(I2806
Velected
p5613
tp5614
a(I2807
Ventered
p5615
tp5616
a(I2808
Vcarried
p5617
tp5618
a(I2809
Vcrucial
p5619
tp5620
a(I2810
Vsinging
p5621
tp5622
a(I2811
Vmexican
p5623
tp5624
a(I2812
Vlincoln
p5625
tp5626
a(I2813
Vbesides
p5627
tp5628
a(I2814
Vmeasure
p5629
tp5630
a(I2815
Vpainted
p5631
tp5632
a(I2816
Vblessed
p5633
tp5634
a(I2817
Vsources
p5635
tp5636
a(I2818
Vseconds
p5637
tp5638
a(I2819
Vdegrees
p5639
tp5640
a(I2820
Vroasted
p5641
tp5642
a(I2821
Vconnect
p5643
tp5644
a(I2822
Vdresses
p5645
tp5646
a(I2823
Vanimals
p5647
tp5648
a(I2824
Vchoices
p5649
tp5650
a(I2825
Vtreated
p5651
tp5652
a(I2826
Vmistake
p5653
tp5654
a(I2827
Vreturns
p5655
tp5656
a(I2828
Vplastic
p5657
tp5658
a(I2829
Vcoaches
p5659
tp5660
a(I2830
Vscience
p5661
tp5662
a(I2831
Vapprove
p5663
tp5664
a(I2832
Vrequest
p5665
tp5666
a(I2833
Vmission
p5667
tp5668
a(I2834
Vsounded
p5669
tp5670
a(I2835
Vchannel
p5671
tp5672
a(I2836
Vsuggest
p5673
tp5674
a(I2837
Vletters
p5675
tp5676
a(I2838
Vherself
p5677
tp5678
a(I2839
Vsomehow
p5679
tp5680
a(I2840
Vmassage
p5681
tp5682
a(I2841
Valcohol
p5683
tp5684
a(I2842
Vtelling
p5685
tp5686
a(I2843
Vmatters
p5687
tp5688
a(I2844
Vafrican
p5689
tp5690
a(I2845
Vcorrect
p5691
tp5692
a(I2846
Vfilling
p5693
tp5694
a(I2847
Vjackson
p5695
tp5696
a(I2848
Vmixture
p5697
tp5698
a(I2849
Vpatient
p5699
tp5700
a(I2850
Vpackage
p5701
tp5702
a(I2851
Vdealing
p5703
tp5704
a(I2852
Vreaders
p5705
tp5706
a(I2853
Vcamping
p5707
tp5708
a(I2854
Vcitizen
p5709
tp5710
a(I2855
Vhighest
p5711
tp5712
a(I2856
Vprotest
p5713
tp5714
a(I2857
Vexpress
p5715
tp5716
a(I2858
Vmachine
p5717
tp5718
a(I2859
Vongoing
p5719
tp5720
a(I2860
Villegal
p5721
tp5722
a(I2861
Vauthors
p5723
tp5724
a(I2862
Vlawsuit
p5725
tp5726
a(I2863
Vstepped
p5727
tp5728
a(I2864
Vbottles
p5729
tp5730
a(I2865
Vservers
p5731
tp5732
a(I2866
Vfigured
p5733
tp5734
a(I2867
Vprotect
p5735
tp5736
a(I2868
Vdancing
p5737
tp5738
a(I2869
Vscoring
p5739
tp5740
a(I2870
Vpushing
p5741
tp5742
a(I2871
Vdreamed
p5743
tp5744
a(I2872
Vsmaller
p5745
tp5746
a(I2873
Vcutting
p5747
tp5748
a(I2874
Vdiverse
p5749
tp5750
a(I2875
Vinvited
p5751
tp5752
a(I2876
Vhowever
p5753
tp5754
a(I2877
Vamounts
p5755
tp5756
a(I2878
Vgranite
p5757
tp5758
a(I2879
Vparties
p5759
tp5760
a(I2880
Voutcome
p5761
tp5762
a(I2881
Vbeating
p5763
tp5764
a(I2882
Vclothes
p5765
tp5766
a(I2883
Vpointed
p5767
tp5768
a(I2884
Vcapitol
p5769
tp5770
a(I2885
Vmonster
p5771
tp5772
a(I2886
Vcomfort
p5773
tp5774
a(I2887
Vupdates
p5775
tp5776
a(I2888
Vdepends
p5777
tp5778
a(I2889
Vancient
p5779
tp5780
a(I2890
Vsisters
p5781
tp5782
a(I2891
Vprofile
p5783
tp5784
a(I2892
Vextreme
p5785
tp5786
a(I2893
Vmadison
p5787
tp5788
a(I2894
Vtuition
p5789
tp5790
a(I2895
Vbedroom
p5791
tp5792
a(I2896
Vtesting
p5793
tp5794
a(I2897
Vashamed
p5795
tp5796
a(I2898
Vsuppose
p5797
tp5798
a(I2899
Voutdoor
p5799
tp5800
a(I2900
Vratings
p5801
tp5802
a(I2901
Vcouples
p5803
tp5804
a(I2902
Vamongst
p5805
tp5806
a(I2903
Vpacific
p5807
tp5808
a(I2904
Vreviews
p5809
tp5810
a(I2905
Vbritain
p5811
tp5812
a(I2906
Vairline
p5813
tp5814
a(I2907
Vinitial
p5815
tp5816
a(I2908
Vjoining
p5817
tp5818
a(I2909
Vretweet
p5819
tp5820
a(I2910
Vexplain
p5821
tp5822
a(I2911
Vtheatre
p5823
tp5824
a(I2912
Vfitness
p5825
tp5826
a(I2913
Vwallace
p5827
tp5828
a(I2914
Vwelfare
p5829
tp5830
a(I2915
Vportion
p5831
tp5832
a(I2916
Vshocked
p5833
tp5834
a(I2917
Vpassing
p5835
tp5836
a(I2918
Vintense
p5837
tp5838
a(I2919
Vremoved
p5839
tp5840
a(I2920
Vfollows
p5841
tp5842
a(I2921
Vseniors
p5843
tp5844
a(I2922
Vlaughed
p5845
tp5846
a(I2923
Vchapter
p5847
tp5848
a(I2924
Vassists
p5849
tp5850
a(I2925
Vclimate
p5851
tp5852
a(I2926
Vcasting
p5853
tp5854
a(I2927
Vpassion
p5855
tp5856
a(I2928
Vadopted
p5857
tp5858
a(I2929
Vearning
p5859
tp5860
a(I2930
Vlessons
p5861
tp5862
a(I2931
Vamateur
p5863
tp5864
a(I2932
Vstretch
p5865
tp5866
a(I2933
Vpacking
p5867
tp5868
a(I2934
Vchasing
p5869
tp5870
a(I2935
Vvehicle
p5871
tp5872
a(I2936
Vrichard
p5873
tp5874
a(I2937
Vvikings
p5875
tp5876
a(I2938
Vperform
p5877
tp5878
a(I2939
Vspirits
p5879
tp5880
a(I2940
Vauction
p5881
tp5882
a(I2941
Vflights
p5883
tp5884
a(I2942
Vordered
p5885
tp5886
a(I2943
Vshadows
p5887
tp5888
a(I2944
Vinjured
p5889
tp5890
a(I2945
Vcheddar
p5891
tp5892
a(I2946
Vwashing
p5893
tp5894
a(I2947
Vexhibit
p5895
tp5896
a(I2948
Vphoenix
p5897
tp5898
a(I2949
Vjumping
p5899
tp5900
a(I2950
Vmarkets
p5901
tp5902
a(I2951
Vreduced
p5903
tp5904
a(I2952
Vshorter
p5905
tp5906
a(I2953
Vkaraoke
p5907
tp5908
a(I2954
Vpumpkin
p5909
tp5910
a(I2955
Vcoconut
p5911
tp5912
a(I2956
Vrespond
p5913
tp5914
a(I2957
Vblowing
p5915
tp5916
a(I2958
Vstudies
p5917
tp5918
a(I2959
Vgenuine
p5919
tp5920
a(I2960
Vfailing
p5921
tp5922
a(I2961
Vcapable
p5923
tp5924
a(I2962
Vdeficit
p5925
tp5926
a(I2963
Vpatrick
p5927
tp5928
a(I2964
Varrival
p5929
tp5930
a(I2965
Vignored
p5931
tp5932
a(I2966
Vbalance
p5933
tp5934
a(I2967
Vtension
p5935
tp5936
a(I2968
Vpension
p5937
tp5938
a(I2969
Vsurface
p5939
tp5940
a(I2970
Vkicking
p5941
tp5942
a(I2971
Vchances
p5943
tp5944
a(I2972
Vtargets
p5945
tp5946
a(I2973
Vliberal
p5947
tp5948
a(I2974
Vbeloved
p5949
tp5950
a(I2975
Vadvance
p5951
tp5952
a(I2976
Vrushing
p5953
tp5954
a(I2977
Vromance
p5955
tp5956
a(I2978
Vstorage
p5957
tp5958
a(I2979
Vinnings
p5959
tp5960
a(I2980
Vcookies
p5961
tp5962
a(I2981
Vjohnson
p5963
tp5964
a(I2982
Vforgive
p5965
tp5966
a(I2983
Vfinance
p5967
tp5968
a(I2984
Vnuclear
p5969
tp5970
a(I2985
Vshoulda
p5971
tp5972
a(I2986
Vdeserve
p5973
tp5974
a(I2987
Vbinding
p5975
tp5976
a(I2988
Vfuneral
p5977
tp5978
a(I2989
Vsucceed
p5979
tp5980
a(I2990
Vanswers
p5981
tp5982
a(I2991
Vcontext
p5983
tp5984
a(I2992
Vwhoever
p5985
tp5986
a(I2993
Vpromote
p5987
tp5988
a(I2994
Vfutures
p5989
tp5990
a(I2995
Vmanning
p5991
tp5992
a(I2996
Vpremier
p5993
tp5994
a(I2997
Vtransit
p5995
tp5996
a(I2998
Vwanting
p5997
tp5998
a(I2999
Vtrailer
p5999
tp6000
a(I3000
Vtomorrow
p6001
tp6002
a(I3001
Vbusiness
p6003
tp6004
a(I3002
Vtogether
p6005
tp6006
a(I3003
Vchildren
p6007
tp6008
a(I3004
Vfavorite
p6009
tp6010
a(I3005
Vnational
p6011
tp6012
a(I3006
Vthinking
p6013
tp6014
a(I3007
Vstudents
p6015
tp6016
a(I3008
Vamerican
p6017
tp6018
a(I3009
Vdirector
p6019
tp6020
a(I3010
Vcontinue
p6021
tp6022
a(I3011
Vremember
p6023
tp6024
a(I3012
Vfinished
p6025
tp6026
a(I3013
Vbuilding
p6027
tp6028
a(I3014
Vstarting
p6029
tp6030
a(I3015
Vwatching
p6031
tp6032
a(I3016
Vquestion
p6033
tp6034
a(I3017
Vdistrict
p6035
tp6036
a(I3018
Valthough
p6037
tp6038
a(I3019
Vincrease
p6039
tp6040
a(I3020
Vpossible
p6041
tp6042
a(I3021
Vhappened
p6043
tp6044
a(I3022
Vpersonal
p6045
tp6046
a(I3023
Vposition
p6047
tp6048
a(I3024
Vinvolved
p6049
tp6050
a(I3025
Vfollowed
p6051
tp6052
a(I3026
Vportland
p6053
tp6054
a(I3027
Vfamilies
p6055
tp6056
a(I3028
Vwhatever
p6057
tp6058
a(I3029
Vspending
p6059
tp6060
a(I3030
Vhospital
p6061
tp6062
a(I3031
Vmovement
p6063
tp6064
a(I3032
Vconsider
p6065
tp6066
a(I3033
Vreleased
p6067
tp6068
a(I3034
Vservices
p6069
tp6070
a(I3035
Vpractice
p6071
tp6072
a(I3036
Vinterest
p6073
tp6074
a(I3037
Vdecision
p6075
tp6076
a(I3038
Vcontract
p6077
tp6078
a(I3039
Vreturned
p6079
tp6080
a(I3040
Vevidence
p6081
tp6082
a(I3041
Vtraining
p6083
tp6084
a(I3042
Vresearch
p6085
tp6086
a(I3043
Vdaughter
p6087
tp6088
a(I3044
Vfacebook
p6089
tp6090
a(I3045
Vproblems
p6091
tp6092
a(I3046
Vshopping
p6093
tp6094
a(I3047
Vpositive
p6095
tp6096
a(I3048
Vplanning
p6097
tp6098
a(I3049
Vexpected
p6099
tp6100
a(I3050
Vlearning
p6101
tp6102
a(I3051
Vreported
p6103
tp6104
a(I3052
Vfootball
p6105
tp6106
a(I3053
Vfighting
p6107
tp6108
a(I3054
Vcampaign
p6109
tp6110
a(I3055
Vreceived
p6111
tp6112
a(I3056
Vcomplete
p6113
tp6114
a(I3057
Vdowntown
p6115
tp6116
a(I3058
Vstraight
p6117
tp6118
a(I3059
Voriginal
p6119
tp6120
a(I3060
Vpictures
p6121
tp6122
a(I3061
Vstandard
p6123
tp6124
a(I3062
Vinternet
p6125
tp6126
a(I3063
Varrested
p6127
tp6128
a(I3064
Velection
p6129
tp6130
a(I3065
Vincluded
p6131
tp6132
a(I3066
Vaddition
p6133
tp6134
a(I3067
Vdecember
p6135
tp6136
a(I3068
Vbenefits
p6137
tp6138
a(I3069
Voffering
p6139
tp6140
a(I3070
Vsurprise
p6141
tp6142
a(I3071
Vofficial
p6143
tp6144
a(I3072
Vmillions
p6145
tp6146
a(I3073
Vproducts
p6147
tp6148
a(I3074
Vcreative
p6149
tp6150
a(I3075
Vshooting
p6151
tp6152
a(I3076
Vcongrats
p6153
tp6154
a(I3077
Vresponse
p6155
tp6156
a(I3078
Vsuffered
p6157
tp6158
a(I3079
Vcustomer
p6159
tp6160
a(I3080
Vvacation
p6161
tp6162
a(I3081
Vgorgeous
p6163
tp6164
a(I3082
Vcreating
p6165
tp6166
a(I3083
Vsleeping
p6167
tp6168
a(I3084
Vexciting
p6169
tp6170
a(I3085
Vprojects
p6171
tp6172
a(I3086
Veconomic
p6173
tp6174
a(I3087
Vgovernor
p6175
tp6176
a(I3088
Vlocation
p6177
tp6178
a(I3089
Vhundreds
p6179
tp6180
a(I3090
Vcomments
p6181
tp6182
a(I3091
Vbehavior
p6183
tp6184
a(I3092
Vincludes
p6185
tp6186
a(I3093
Vsouthern
p6187
tp6188
a(I3094
Vteachers
p6189
tp6190
a(I3095
Vcomputer
p6191
tp6192
a(I3096
Vcongress
p6193
tp6194
a(I3097
Vconcerns
p6195
tp6196
a(I3098
Vappeared
p6197
tp6198
a(I3099
Vprograms
p6199
tp6200
a(I3100
Vdivision
p6201
tp6202
a(I3101
Vmultiple
p6203
tp6204
a(I3102
Vrequired
p6205
tp6206
a(I3103
Vdrinking
p6207
tp6208
a(I3104
Vcarolina
p6209
tp6210
a(I3105
Vtweeting
p6211
tp6212
a(I3106
Vproposal
p6213
tp6214
a(I3107
Vcriminal
p6215
tp6216
a(I3108
Vsupposed
p6217
tp6218
a(I3109
Vchanging
p6219
tp6220
a(I3110
Vmeetings
p6221
tp6222
a(I3111
Veuropean
p6223
tp6224
a(I3112
Vthoughts
p6225
tp6226
a(I3113
Vdeclined
p6227
tp6228
a(I3114
Vapproved
p6229
tp6230
a(I3115
Vchecking
p6231
tp6232
a(I3116
Vvisitors
p6233
tp6234
a(I3117
Vattacked
p6235
tp6236
a(I3118
Vaudience
p6237
tp6238
a(I3119
Vmountain
p6239
tp6240
a(I3120
Vgreatest
p6241
tp6242
a(I3121
Vinspired
p6243
tp6244
a(I3122
Vdesigned
p6245
tp6246
a(I3123
Vthrowing
p6247
tp6248
a(I3124
Vlanguage
p6249
tp6250
a(I3125
Vextended
p6251
tp6252
a(I3126
Vschedule
p6253
tp6254
a(I3127
Vmichigan
p6255
tp6256
a(I3128
Vpressure
p6257
tp6258
a(I3129
Vmaterial
p6259
tp6260
a(I3130
Vmarriage
p6261
tp6262
a(I3131
Vfabulous
p6263
tp6264
a(I3132
Vtownship
p6265
tp6266
a(I3133
Vprevious
p6267
tp6268
a(I3134
Vbringing
p6269
tp6270
a(I3135
Vbrothers
p6271
tp6272
a(I3136
Vconfused
p6273
tp6274
a(I3137
Vchampion
p6275
tp6276
a(I3138
Vbreaking
p6277
tp6278
a(I3139
Vbaseball
p6279
tp6280
a(I3140
Vweekends
p6281
tp6282
a(I3141
Vpresence
p6283
tp6284
a(I3142
Vrealized
p6285
tp6286
a(I3143
Vthankful
p6287
tp6288
a(I3144
Vcombined
p6289
tp6290
a(I3145
Vwelcomed
p6291
tp6292
a(I3146
Vchurches
p6293
tp6294
a(I3147
Vbathroom
p6295
tp6296
a(I3148
Vmagazine
p6297
tp6298
a(I3149
Vmissouri
p6299
tp6300
a(I3150
Vpurchase
p6301
tp6302
a(I3151
Vcolorado
p6303
tp6304
a(I3152
Vwilliams
p6305
tp6306
a(I3153
Vcompared
p6307
tp6308
a(I3154
Vreminded
p6309
tp6310
a(I3155
Vcultural
p6311
tp6312
a(I3156
Vregional
p6313
tp6314
a(I3157
Vpatients
p6315
tp6316
a(I3158
Vmistakes
p6317
tp6318
a(I3159
Vfeatures
p6319
tp6320
a(I3160
Vprovides
p6321
tp6322
a(I3161
Vprovided
p6323
tp6324
a(I3162
Vresident
p6325
tp6326
a(I3163
Vnorthern
p6327
tp6328
a(I3164
Vfeelings
p6329
tp6330
a(I3165
Vaccounts
p6331
tp6332
a(I3166
Vfamiliar
p6333
tp6334
a(I3167
Vprecious
p6335
tp6336
a(I3168
Vexercise
p6337
tp6338
a(I3169
Vincident
p6339
tp6340
a(I3170
Vofficers
p6341
tp6342
a(I3171
Vgrateful
p6343
tp6344
a(I3172
Vgambling
p6345
tp6346
a(I3173
Vsolution
p6347
tp6348
a(I3174
Vlaughing
p6349
tp6350
a(I3175
Vcolumbia
p6351
tp6352
a(I3176
Vteaching
p6353
tp6354
a(I3177
Vfeedback
p6355
tp6356
a(I3178
Vfreshman
p6357
tp6358
a(I3179
Vspeaking
p6359
tp6360
a(I3180
Vrequires
p6361
tp6362
a(I3181
Vopposite
p6363
tp6364
a(I3182
Villinois
p6365
tp6366
a(I3183
Vaffected
p6367
tp6368
a(I3184
Vcaptured
p6369
tp6370
a(I3185
Vterrible
p6371
tp6372
a(I3186
Vstanding
p6373
tp6374
a(I3187
Vargument
p6375
tp6376
a(I3188
Vcreation
p6377
tp6378
a(I3189
Vsomewhat
p6379
tp6380
a(I3190
Vmaintain
p6381
tp6382
a(I3191
Vinnocent
p6383
tp6384
a(I3192
Vlaunched
p6385
tp6386
a(I3193
Vdomestic
p6387
tp6388
a(I3194
Vstruggle
p6389
tp6390
a(I3195
Vsometime
p6391
tp6392
a(I3196
Vcatholic
p6393
tp6394
a(I3197
Vmessages
p6395
tp6396
a(I3198
Vregister
p6397
tp6398
a(I3199
Ventering
p6399
tp6400
a(I3200
Velements
p6401
tp6402
a(I3201
Vpleasure
p6403
tp6404
a(I3202
Vsuperior
p6405
tp6406
a(I3203
Vbecoming
p6407
tp6408
a(I3204
Vintended
p6409
tp6410
a(I3205
Vattempts
p6411
tp6412
a(I3206
Vsemester
p6413
tp6414
a(I3207
Vapproach
p6415
tp6416
a(I3208
Vswimming
p6417
tp6418
a(I3209
Vrevealed
p6419
tp6420
a(I3210
Vpromises
p6421
tp6422
a(I3211
Vreplaced
p6423
tp6424
a(I3212
Vsupplies
p6425
tp6426
a(I3213
Vaudition
p6427
tp6428
a(I3214
Vpatterns
p6429
tp6430
a(I3215
Vspecific
p6431
tp6432
a(I3216
Vproposed
p6433
tp6434
a(I3217
Vfestival
p6435
tp6436
a(I3218
Vdirected
p6437
tp6438
a(I3219
Vcampbell
p6439
tp6440
a(I3220
Vhistoric
p6441
tp6442
a(I3221
Vairlines
p6443
tp6444
a(I3222
Vnegative
p6445
tp6446
a(I3223
Vchairman
p6447
tp6448
a(I3224
Vchristie
p6449
tp6450
a(I3225
Vcanadian
p6451
tp6452
a(I3226
Vthrilled
p6453
tp6454
a(I3227
Vattached
p6455
tp6456
a(I3228
Vmedicine
p6457
tp6458
a(I3229
Vcupcakes
p6459
tp6460
a(I3230
Vdramatic
p6461
tp6462
a(I3231
Vreporter
p6463
tp6464
a(I3232
Vacademic
p6465
tp6466
a(I3233
Vattended
p6467
tp6468
a(I3234
Vgraduate
p6469
tp6470
a(I3235
Vpotatoes
p6471
tp6472
a(I3236
Vexchange
p6473
tp6474
a(I3237
Vdiscover
p6475
tp6476
a(I3238
Vstrength
p6477
tp6478
a(I3239
Vblessing
p6479
tp6480
a(I3240
Vworkshop
p6481
tp6482
a(I3241
Vdistance
p6483
tp6484
a(I3242
Vrejected
p6485
tp6486
a(I3243
Vsuggests
p6487
tp6488
a(I3244
Vallowing
p6489
tp6490
a(I3245
Vconsumer
p6491
tp6492
a(I3246
Vcounting
p6493
tp6494
a(I3247
Ventitled
p6495
tp6496
a(I3248
Vshredded
p6497
tp6498
a(I3249
Vpainting
p6499
tp6500
a(I3250
Vcritical
p6501
tp6502
a(I3251
Vexisting
p6503
tp6504
a(I3252
Vcitizens
p6505
tp6506
a(I3253
Vcivilian
p6507
tp6508
a(I3254
Vprinting
p6509
tp6510
a(I3255
Vviolence
p6511
tp6512
a(I3256
Vupcoming
p6513
tp6514
a(I3257
Vpartners
p6515
tp6516
a(I3258
Vglorious
p6517
tp6518
a(I3259
Vprogress
p6519
tp6520
a(I3260
Vcontrast
p6521
tp6522
a(I3261
Vearnings
p6523
tp6524
a(I3262
Vprepared
p6525
tp6526
a(I3263
Vshoulder
p6527
tp6528
a(I3264
Vvehicles
p6529
tp6530
a(I3265
Vmagianos
p6531
tp6532
a(I3266
Vselected
p6533
tp6534
a(I3267
Vstopping
p6535
tp6536
a(I3268
Vdownload
p6537
tp6538
a(I3269
Vjudgment
p6539
tp6540
a(I3270
Vmemories
p6541
tp6542
a(I3271
Vathletic
p6543
tp6544
a(I3272
Vannounce
p6545
tp6546
a(I3273
Vborrowed
p6547
tp6548
a(I3274
Vstranger
p6549
tp6550
a(I3275
Vimproved
p6551
tp6552
a(I3276
Vconstant
p6553
tp6554
a(I3277
Vbelieves
p6555
tp6556
a(I3278
Vbelieved
p6557
tp6558
a(I3279
Vaccepted
p6559
tp6560
a(I3280
Vspectrum
p6561
tp6562
a(I3281
Vapparent
p6563
tp6564
a(I3282
Vcrossing
p6565
tp6566
a(I3283
Voutlined
p6567
tp6568
a(I3284
Varriving
p6569
tp6570
a(I3285
Vclothing
p6571
tp6572
a(I3286
Vlawsuits
p6573
tp6574
a(I3287
Vapproval
p6575
tp6576
a(I3288
Vpakistan
p6577
tp6578
a(I3289
Vnovember
p6579
tp6580
a(I3290
Vmeasures
p6581
tp6582
a(I3291
Velectric
p6583
tp6584
a(I3292
Vemotions
p6585
tp6586
a(I3293
Vlistened
p6587
tp6588
a(I3294
Vwondered
p6589
tp6590
a(I3295
Vwebsites
p6591
tp6592
a(I3296
Vseparate
p6593
tp6594
a(I3297
Vhomework
p6595
tp6596
a(I3298
Vcovering
p6597
tp6598
a(I3299
Ventities
p6599
tp6600
a(I3300
Vdiabetes
p6601
tp6602
a(I3301
Vgenerous
p6603
tp6604
a(I3302
Vwhenever
p6605
tp6606
a(I3303
Vrebounds
p6607
tp6608
a(I3304
Vproduced
p6609
tp6610
a(I3305
Vreferred
p6611
tp6612
a(I3306
Vmarathon
p6613
tp6614
a(I3307
Vtransfer
p6615
tp6616
a(I3308
Vavengers
p6617
tp6618
a(I3309
Vromantic
p6619
tp6620
a(I3310
Vtalented
p6621
tp6622
a(I3311
Vpresents
p6623
tp6624
a(I3312
Vprospect
p6625
tp6626
a(I3313
Vfranklin
p6627
tp6628
a(I3314
Vjapanese
p6629
tp6630
a(I3315
Vreceiver
p6631
tp6632
a(I3316
Vrevenues
p6633
tp6634
a(I3317
Vmidnight
p6635
tp6636
a(I3318
Vproducer
p6637
tp6638
a(I3319
Vmanaging
p6639
tp6640
a(I3320
Vadorable
p6641
tp6642
a(I3321
Vsantorum
p6643
tp6644
a(I3322
Vstanford
p6645
tp6646
a(I3323
Vpancakes
p6647
tp6648
a(I3324
Vopponent
p6649
tp6650
a(I3325
Vdiseases
p6651
tp6652
a(I3326
Vpromised
p6653
tp6654
a(I3327
Vsurvival
p6655
tp6656
a(I3328
Vmemorial
p6657
tp6658
a(I3329
Vinjuries
p6659
tp6660
a(I3330
Vdesigner
p6661
tp6662
a(I3331
Vpictured
p6663
tp6664
a(I3332
Vdeadline
p6665
tp6666
a(I3333
Vgoodness
p6667
tp6668
a(I3334
Vshipping
p6669
tp6670
a(I3335
Vuniverse
p6671
tp6672
a(I3336
Vdialogue
p6673
tp6674
a(I3337
Vdescribe
p6675
tp6676
a(I3338
Vcolumbus
p6677
tp6678
a(I3339
Vtemplate
p6679
tp6680
a(I3340
Vshepherd
p6681
tp6682
a(I3341
Vadvocate
p6683
tp6684
a(I3342
Vconflict
p6685
tp6686
a(I3343
Vsearches
p6687
tp6688
a(I3344
Vathletes
p6689
tp6690
a(I3345
Vseizures
p6691
tp6692
a(I3346
Vinvestor
p6693
tp6694
a(I3347
Vresulted
p6695
tp6696
a(I3348
Vtargeted
p6697
tp6698
a(I3349
Vfollower
p6699
tp6700
a(I3350
Vmomentum
p6701
tp6702
a(I3351
Vcollapse
p6703
tp6704
a(I3352
Vsupports
p6705
tp6706
a(I3353
Vfeatured
p6707
tp6708
a(I3354
Vdocument
p6709
tp6710
a(I3355
Vbullshit
p6711
tp6712
a(I3356
Vvisiting
p6713
tp6714
a(I3357
Vchapters
p6715
tp6716
a(I3358
Vrepeated
p6717
tp6718
a(I3359
Vcomeback
p6719
tp6720
a(I3360
Vdisagree
p6721
tp6722
a(I3361
Vpreserve
p6723
tp6724
a(I3362
Vaccident
p6725
tp6726
a(I3363
Vshowcase
p6727
tp6728
a(I3364
Vconcrete
p6729
tp6730
a(I3365
Vbragging
p6731
tp6732
a(I3366
Vfunction
p6733
tp6734
a(I3367
Vunveiled
p6735
tp6736
a(I3368
Vcreature
p6737
tp6738
a(I3369
Vpolitics
p6739
tp6740
a(I3370
Vcontains
p6741
tp6742
a(I3371
Vanswered
p6743
tp6744
a(I3372
Vopposing
p6745
tp6746
a(I3373
Vshoutout
p6747
tp6748
a(I3374
Vdemocrat
p6749
tp6750
a(I3375
Vpolicies
p6751
tp6752
a(I3376
Vsoftware
p6753
tp6754
a(I3377
Valliance
p6755
tp6756
a(I3378
Vphillips
p6757
tp6758
a(I3379
Veducated
p6759
tp6760
a(I3380
Vbackward
p6761
tp6762
a(I3381
Vdonation
p6763
tp6764
a(I3382
Vadvanced
p6765
tp6766
a(I3383
Vblogging
p6767
tp6768
a(I3384
Vobsessed
p6769
tp6770
a(I3385
Vfloating
p6771
tp6772
a(I3386
Vdragging
p6773
tp6774
a(I3387
Vsandwich
p6775
tp6776
a(I3388
Vhusbands
p6777
tp6778
a(I3389
Vlighting
p6779
tp6780
a(I3390
Vdeciding
p6781
tp6782
a(I3391
Vlectures
p6783
tp6784
a(I3392
Vpleasant
p6785
tp6786
a(I3393
Vmourning
p6787
tp6788
a(I3394
Vbrighter
p6789
tp6790
a(I3395
Vepisodes
p6791
tp6792
a(I3396
Vcoliseum
p6793
tp6794
a(I3397
Vvirginia
p6795
tp6796
a(I3398
Vsessions
p6797
tp6798
a(I3399
Vinvented
p6799
tp6800
a(I3400
Vmatching
p6801
tp6802
a(I3401
Vdisorder
p6803
tp6804
a(I3402
Vinformed
p6805
tp6806
a(I3403
Vdisabled
p6807
tp6808
a(I3404
Vtroubles
p6809
tp6810
a(I3405
Vagencies
p6811
tp6812
a(I3406
Vneighbor
p6813
tp6814
a(I3407
Vadequate
p6815
tp6816
a(I3408
Vmcdonald
p6817
tp6818
a(I3409
Vattacker
p6819
tp6820
a(I3410
Vfaithful
p6821
tp6822
a(I3411
Vsticking
p6823
tp6824
a(I3412
Vexceeded
p6825
tp6826
a(I3413
Voccurred
p6827
tp6828
a(I3414
Vworkouts
p6829
tp6830
a(I3415
Vcatching
p6831
tp6832
a(I3416
Vreadings
p6833
tp6834
a(I3417
Vlongtime
p6835
tp6836
a(I3418
Vclaiming
p6837
tp6838
a(I3419
Vmeantime
p6839
tp6840
a(I3420
Vmornings
p6841
tp6842
a(I3421
Vengaging
p6843
tp6844
a(I3422
Vvillages
p6845
tp6846
a(I3423
Vacoustic
p6847
tp6848
a(I3424
Vbiblical
p6849
tp6850
a(I3425
Veclectic
p6851
tp6852
a(I3426
Vcrafting
p6853
tp6854
a(I3427
Vstations
p6855
tp6856
a(I3428
Voutgoing
p6857
tp6858
a(I3429
Vlicenses
p6859
tp6860
a(I3430
Vrobinson
p6861
tp6862
a(I3431
Voccasion
p6863
tp6864
a(I3432
Vinvolves
p6865
tp6866
a(I3433
Vgathered
p6867
tp6868
a(I3434
Vchandler
p6869
tp6870
a(I3435
Vrelaxing
p6871
tp6872
a(I3436
Vnintendo
p6873
tp6874
a(I3437
Vtoppings
p6875
tp6876
a(I3438
Vdaunting
p6877
tp6878
a(I3439
Vorganize
p6879
tp6880
a(I3440
Vcrackers
p6881
tp6882
a(I3441
Varranged
p6883
tp6884
a(I3442
Vheritage
p6885
tp6886
a(I3443
Vpregnant
p6887
tp6888
a(I3444
Vdefender
p6889
tp6890
a(I3445
Vcritique
p6891
tp6892
a(I3446
Vcolleges
p6893
tp6894
a(I3447
Vinternal
p6895
tp6896
a(I3448
Vnonsense
p6897
tp6898
a(I3449
Vmartinez
p6899
tp6900
a(I3450
Vdownhill
p6901
tp6902
a(I3451
Vhometown
p6903
tp6904
a(I3452
Vspecials
p6905
tp6906
a(I3453
Vdearborn
p6907
tp6908
a(I3454
Vvillains
p6909
tp6910
a(I3455
Vterminal
p6911
tp6912
a(I3456
Vdeserves
p6913
tp6914
a(I3457
Vdrawings
p6915
tp6916
a(I3458
Vpassword
p6917
tp6918
a(I3459
Vbearings
p6919
tp6920
a(I3460
Vmedicaid
p6921
tp6922
a(I3461
Vpurposes
p6923
tp6924
a(I3462
Vnicholas
p6925
tp6926
a(I3463
Vignorant
p6927
tp6928
a(I3464
Vpeterson
p6929
tp6930
a(I3465
Veurozone
p6931
tp6932
a(I3466
Vlacrosse
p6933
tp6934
a(I3467
Vconclude
p6935
tp6936
a(I3468
Vsettings
p6937
tp6938
a(I3469
Vcostumes
p6939
tp6940
a(I3470
Vcontacts
p6941
tp6942
a(I3471
Vguidance
p6943
tp6944
a(I3472
Vguardian
p6945
tp6946
a(I3473
Vhardware
p6947
tp6948
a(I3474
Vdominate
p6949
tp6950
a(I3475
Vmushroom
p6951
tp6952
a(I3476
Vobtained
p6953
tp6954
a(I3477
Vreflects
p6955
tp6956
a(I3478
Vstepping
p6957
tp6958
a(I3479
Vrotation
p6959
tp6960
a(I3480
Vprincess
p6961
tp6962
a(I3481
Vsalaries
p6963
tp6964
a(I3482
Vhandling
p6965
tp6966
a(I3483
Vstroller
p6967
tp6968
a(I3484
Vjudicial
p6969
tp6970
a(I3485
Vrelative
p6971
tp6972
a(I3486
Vchoosing
p6973
tp6974
a(I3487
Vexpanded
p6975
tp6976
a(I3488
Vfreedoms
p6977
tp6978
a(I3489
Vclemente
p6979
tp6980
a(I3490
Vdefeated
p6981
tp6982
a(I3491
Vsentence
p6983
tp6984
a(I3492
Vsporting
p6985
tp6986
a(I3493
Voversees
p6987
tp6988
a(I3494
Vparadigm
p6989
tp6990
a(I3495
Vsensible
p6991
tp6992
a(I3496
Voklahoma
p6993
tp6994
a(I3497
Vindicate
p6995
tp6996
a(I3498
Vtowering
p6997
tp6998
a(I3499
Vmatthews
p6999
tp7000
a(I3500
Vsomething
p7001
tp7002
a(I3501
Vdifferent
p7003
tp7004
a(I3502
Vincluding
p7005
tp7006
a(I3503
Vchristmas
p7007
tp7008
a(I3504
Vpresident
p7009
tp7010
a(I3505
Vfollowing
p7011
tp7012
a(I3506
Vbeautiful
p7013
tp7014
a(I3507
Vofficials
p7015
tp7016
a(I3508
Vaccording
p7017
tp7018
a(I3509
Vsometimes
p7019
tp7020
a(I3510
Vimportant
p7021
tp7022
a(I3511
Vavailable
p7023
tp7024
a(I3512
Vquestions
p7025
tp7026
a(I3513
Vcompanies
p7027
tp7028
a(I3514
Vchallenge
p7029
tp7030
a(I3515
Vpolitical
p7031
tp7032
a(I3516
Vattention
p7033
tp7034
a(I3517
Vfinancial
p7035
tp7036
a(I3518
Vwonderful
p7037
tp7038
a(I3519
Veducation
p7039
tp7040
a(I3520
Vbeginning
p7041
tp7042
a(I3521
Vlistening
p7043
tp7044
a(I3522
Vcleveland
p7045
tp7046
a(I3523
Vafternoon
p7047
tp7048
a(I3524
Vconcerned
p7049
tp7050
a(I3525
Vpotential
p7051
tp7052
a(I3526
Vresidents
p7053
tp7054
a(I3527
Vcontinued
p7055
tp7056
a(I3528
Vinterview
p7057
tp7058
a(I3529
Vexecutive
p7059
tp7060
a(I3530
Vcelebrate
p7061
tp7062
a(I3531
Vcustomers
p7063
tp7064
a(I3532
Vcommittee
p7065
tp7066
a(I3533
Vchocolate
p7067
tp7068
a(I3534
Vequipment
p7069
tp7070
a(I3535
Vamericans
p7071
tp7072
a(I3536
Vhappening
p7073
tp7074
a(I3537
Vfollowers
p7075
tp7076
a(I3538
Vincreased
p7077
tp7078
a(I3539
Vcharacter
p7079
tp7080
a(I3540
Vapartment
p7081
tp7082
a(I3541
Vdifficult
p7083
tp7084
a(I3542
Vstatement
p7085
tp7086
a(I3543
Vmentioned
p7087
tp7088
a(I3544
Vseptember
p7089
tp7090
a(I3545
Vestimated
p7091
tp7092
a(I3546
Vannounced
p7093
tp7094
a(I3547
Vmarketing
p7095
tp7096
a(I3548
Vfrancisco
p7097
tp7098
a(I3549
Vbreakfast
p7099
tp7100
a(I3550
Vinterests
p7101
tp7102
a(I3551
Vresources
p7103
tp7104
a(I3552
Vchristian
p7105
tp7106
a(I3553
Vthousands
p7107
tp7108
a(I3554
Vdepending
p7109
tp7110
a(I3555
Vcountries
p7111
tp7112
a(I3556
Vinsurance
p7113
tp7114
a(I3557
Vsomewhere
p7115
tp7116
a(I3558
Vinvestors
p7117
tp7118
a(I3559
Vknowledge
p7119
tp7120
a(I3560
Vemotional
p7121
tp7122
a(I3561
Vdirection
p7123
tp7124
a(I3562
Vcompeting
p7125
tp7126
a(I3563
Vdecisions
p7127
tp7128
a(I3564
Veffective
p7129
tp7130
a(I3565
Vdelicious
p7131
tp7132
a(I3566
Vassistant
p7133
tp7134
a(I3567
Vscheduled
p7135
tp7136
a(I3568
Vcorporate
p7137
tp7138
a(I3569
Vsurprised
p7139
tp7140
a(I3570
Votherwise
p7141
tp7142
a(I3571
Vinfluence
p7143
tp7144
a(I3572
Vrecording
p7145
tp7146
a(I3573
Vsentiment
p7147
tp7148
a(I3574
Vwondering
p7149
tp7150
a(I3575
Vexcellent
p7151
tp7152
a(I3576
Vcardinals
p7153
tp7154
a(I3577
Vmanhattan
p7155
tp7156
a(I3578
Vencourage
p7157
tp7158
a(I3579
Vsituation
p7159
tp7160
a(I3580
Vtreatment
p7161
tp7162
a(I3581
Vcoalition
p7163
tp7164
a(I3582
Vspiritual
p7165
tp7166
a(I3583
Vattending
p7167
tp7168
a(I3584
Vpublished
p7169
tp7170
a(I3585
Vremaining
p7171
tp7172
a(I3586
Vagreement
p7173
tp7174
a(I3587
Vsolutions
p7175
tp7176
a(I3588
Vdaughters
p7177
tp7178
a(I3589
Vexpensive
p7179
tp7180
a(I3590
Vproviding
p7181
tp7182
a(I3591
Vclassroom
p7183
tp7184
a(I3592
Vdescribed
p7185
tp7186
a(I3593
Vgraduated
p7187
tp7188
a(I3594
Vexpecting
p7189
tp7190
a(I3595
Vsuggested
p7191
tp7192
a(I3596
Vcandidate
p7193
tp7194
a(I3597
Vcommitted
p7195
tp7196
a(I3598
Vexistence
p7197
tp7198
a(I3599
Vcompleted
p7199
tp7200
a(I3600
Vcollected
p7201
tp7202
a(I3601
Vreceiving
p7203
tp7204
a(I3602
Vdocuments
p7205
tp7206
a(I3603
Vbaltimore
p7207
tp7208
a(I3604
Vwisconsin
p7209
tp7210
a(I3605
Vdefensive
p7211
tp7212
a(I3606
Vresponded
p7213
tp7214
a(I3607
Vhospitals
p7215
tp7216
a(I3608
Vourselves
p7217
tp7218
a(I3609
Vconfirmed
p7219
tp7220
a(I3610
Vdistricts
p7221
tp7222
a(I3611
Vtraveling
p7223
tp7224
a(I3612
Vadvantage
p7225
tp7226
a(I3613
Vsouthwest
p7227
tp7228
a(I3614
Vimmigrant
p7229
tp7230
a(I3615
Vhousehold
p7231
tp7232
a(I3616
Vneighbors
p7233
tp7234
a(I3617
Vwrestling
p7235
tp7236
a(I3618
Vlocations
p7237
tp7238
a(I3619
Vtechnique
p7239
tp7240
a(I3620
Vinvolving
p7241
tp7242
a(I3621
Vvolunteer
p7243
tp7244
a(I3622
Vspokesman
p7245
tp7246
a(I3623
Vconnected
p7247
tp7248
a(I3624
Vsearching
p7249
tp7250
a(I3625
Vmaterials
p7251
tp7252
a(I3626
Vperformed
p7253
tp7254
a(I3627
Vpurchased
p7255
tp7256
a(I3628
Vexploring
p7257
tp7258
a(I3629
Vfantastic
p7259
tp7260
a(I3630
Vdemocrats
p7261
tp7262
a(I3631
Vcontinues
p7263
tp7264
a(I3632
Vbuildings
p7265
tp7266
a(I3633
Vpreparing
p7267
tp7268
a(I3634
Vmountains
p7269
tp7270
a(I3635
Vinstalled
p7271
tp7272
a(I3636
Vbreathing
p7273
tp7274
a(I3637
Varguments
p7275
tp7276
a(I3638
Vregarding
p7277
tp7278
a(I3639
Vfurniture
p7279
tp7280
a(I3640
Vstructure
p7281
tp7282
a(I3641
Vlawmakers
p7283
tp7284
a(I3642
Vhalloween
p7285
tp7286
a(I3643
Vpermanent
p7287
tp7288
a(I3644
Vselection
p7289
tp7290
a(I3645
Vminnesota
p7291
tp7292
a(I3646
Vvalentine
p7293
tp7294
a(I3647
Vpresented
p7295
tp7296
a(I3648
Vblessings
p7297
tp7298
a(I3649
Vcomplaint
p7299
tp7300
a(I3650
Vprojected
p7301
tp7302
a(I3651
Vrecession
p7303
tp7304
a(I3652
Vestablish
p7305
tp7306
a(I3653
Vshoulders
p7307
tp7308
a(I3654
Vhighlight
p7309
tp7310
a(I3655
Vdetermine
p7311
tp7312
a(I3656
Vprinciple
p7313
tp7314
a(I3657
Vmotivated
p7315
tp7316
a(I3658
Vfortunate
p7317
tp7318
a(I3659
Vhilarious
p7319
tp7320
a(I3660
Vnortheast
p7321
tp7322
a(I3661
Vretailers
p7323
tp7324
a(I3662
Vessential
p7325
tp7326
a(I3663
Vconsumers
p7327
tp7328
a(I3664
Vreligious
p7329
tp7330
a(I3665
Vdeparture
p7331
tp7332
a(I3666
Vimproving
p7333
tp7334
a(I3667
Vgathering
p7335
tp7336
a(I3668
Vrecommend
p7337
tp7338
a(I3669
Vexclusive
p7339
tp7340
a(I3670
Vcriticism
p7341
tp7342
a(I3671
Vhappiness
p7343
tp7344
a(I3672
Vopponents
p7345
tp7346
a(I3673
Vexplained
p7347
tp7348
a(I3674
Vspreading
p7349
tp7350
a(I3675
Vreduction
p7351
tp7352
a(I3676
Vconcluded
p7353
tp7354
a(I3677
Vhillsboro
p7355
tp7356
a(I3678
Vdetective
p7357
tp7358
a(I3679
Vincreases
p7359
tp7360
a(I3680
Vcertified
p7361
tp7362
a(I3681
Vwelcoming
p7363
tp7364
a(I3682
Vdangerous
p7365
tp7366
a(I3683
Vexpertise
p7367
tp7368
a(I3684
Vconvinced
p7369
tp7370
a(I3685
Voffensive
p7371
tp7372
a(I3686
Vinstitute
p7373
tp7374
a(I3687
Vintroduce
p7375
tp7376
a(I3688
Vconvicted
p7377
tp7378
a(I3689
Vlibraries
p7379
tp7380
a(I3690
Vforgotten
p7381
tp7382
a(I3691
Vnonprofit
p7383
tp7384
a(I3692
Vencounter
p7385
tp7386
a(I3693
Vteammates
p7387
tp7388
a(I3694
Vreference
p7389
tp7390
a(I3695
Vsuspected
p7391
tp7392
a(I3696
Vancestors
p7393
tp7394
a(I3697
Vsidewalks
p7395
tp7396
a(I3698
Vstruggled
p7397
tp7398
a(I3699
Vtradition
p7399
tp7400
a(I3700
Vfavorites
p7401
tp7402
a(I3701
Vscreaming
p7403
tp7404
a(I3702
Vsacrifice
p7405
tp7406
a(I3703
Vactivists
p7407
tp7408
a(I3704
Vpractical
p7409
tp7410
a(I3705
Vsocialist
p7411
tp7412
a(I3706
Vlandscape
p7413
tp7414
a(I3707
Vreturning
p7415
tp7416
a(I3708
Vengineers
p7417
tp7418
a(I3709
Vpractices
p7419
tp7420
a(I3710
Vafterward
p7421
tp7422
a(I3711
Vrevealing
p7423
tp7424
a(I3712
Vdefending
p7425
tp7426
a(I3713
Vchildhood
p7427
tp7428
a(I3714
Vcontracts
p7429
tp7430
a(I3715
Vpossessed
p7431
tp7432
a(I3716
Vdiscussed
p7433
tp7434
a(I3717
Vstandards
p7435
tp7436
a(I3718
Vincidents
p7437
tp7438
a(I3719
Vnashville
p7439
tp7440
a(I3720
Vovernight
p7441
tp7442
a(I3721
Vambulance
p7443
tp7444
a(I3722
Vattracted
p7445
tp7446
a(I3723
Vtelephone
p7447
tp7448
a(I3724
Vrequested
p7449
tp7450
a(I3725
Vdedicated
p7451
tp7452
a(I3726
Vfinancing
p7453
tp7454
a(I3727
Vbrilliant
p7455
tp7456
a(I3728
Vincapable
p7457
tp7458
a(I3729
Vcancelled
p7459
tp7460
a(I3730
Vpromotion
p7461
tp7462
a(I3731
Vparenting
p7463
tp7464
a(I3732
Vcreations
p7465
tp7466
a(I3733
Vsustained
p7467
tp7468
a(I3734
Vreporting
p7469
tp7470
a(I3735
Vdeveloped
p7471
tp7472
a(I3736
Vmilwaukee
p7473
tp7474
a(I3737
Vinquiries
p7475
tp7476
a(I3738
Vperceived
p7477
tp7478
a(I3739
Vignorance
p7479
tp7480
a(I3740
Vexpressed
p7481
tp7482
a(I3741
Vfeaturing
p7483
tp7484
a(I3742
Vmarijuana
p7485
tp7486
a(I3743
Vinvesting
p7487
tp7488
a(I3744
Vwitnessed
p7489
tp7490
a(I3745
Voperating
p7491
tp7492
a(I3746
Vincumbent
p7493
tp7494
a(I3747
Vacademics
p7495
tp7496
a(I3748
Vreporters
p7497
tp7498
a(I3749
Vparticles
p7499
tp7500
a(I3750
Vpromising
p7501
tp7502
a(I3751
Vdefenders
p7503
tp7504
a(I3752
Velaborate
p7505
tp7506
a(I3753
Vadvocates
p7507
tp7508
a(I3754
Vcampaigns
p7509
tp7510
a(I3755
Vuniversal
p7511
tp7512
a(I3756
Vroosevelt
p7513
tp7514
a(I3757
Vimmediate
p7515
tp7516
a(I3758
Vpurchases
p7517
tp7518
a(I3759
Vtechnical
p7519
tp7520
a(I3760
Vprominent
p7521
tp7522
a(I3761
Vappointed
p7523
tp7524
a(I3762
Vpositions
p7525
tp7526
a(I3763
Vsponsored
p7527
tp7528
a(I3764
Vrepresent
p7529
tp7530
a(I3765
Vprotected
p7531
tp7532
a(I3766
Vprincipal
p7533
tp7534
a(I3767
Vcountdown
p7535
tp7536
a(I3768
Vdesperate
p7537
tp7538
a(I3769
Vrelations
p7539
tp7540
a(I3770
Vfavourite
p7541
tp7542
a(I3771
Vamsterdam
p7543
tp7544
a(I3772
Vaustralia
p7545
tp7546
a(I3773
Vstatewide
p7547
tp7548
a(I3774
Vcellphone
p7549
tp7550
a(I3775
Vlordstown
p7551
tp7552
a(I3776
Vconcealed
p7553
tp7554
a(I3777
Vabundance
p7555
tp7556
a(I3778
Veliminate
p7557
tp7558
a(I3779
Vscreening
p7559
tp7560
a(I3780
Vterrorism
p7561
tp7562
a(I3781
Vrelatives
p7563
tp7564
a(I3782
Vgentleman
p7565
tp7566
a(I3783
Vberkshire
p7567
tp7568
a(I3784
Vprospects
p7569
tp7570
a(I3785
Vexception
p7571
tp7572
a(I3786
Vasparagus
p7573
tp7574
a(I3787
Vaddressed
p7575
tp7576
a(I3788
Vconducted
p7577
tp7578
a(I3789
Vbroadcast
p7579
tp7580
a(I3790
Vpatterson
p7581
tp7582
a(I3791
Vtargeting
p7583
tp7584
a(I3792
Vfunctions
p7585
tp7586
a(I3793
Vinvisible
p7587
tp7588
a(I3794
Vapartheid
p7589
tp7590
a(I3795
Vpredators
p7591
tp7592
a(I3796
Vobligated
p7593
tp7594
a(I3797
Vboulevard
p7595
tp7596
a(I3798
Vbelieving
p7597
tp7598
a(I3799
Vworkshops
p7599
tp7600
a(I3800
Vstarbucks
p7601
tp7602
a(I3801
Vprompting
p7603
tp7604
a(I3802
Vcoastline
p7605
tp7606
a(I3803
Vmotorists
p7607
tp7608
a(I3804
Vobsession
p7609
tp7610
a(I3805
Vrealistic
p7611
tp7612
a(I3806
Vsophomore
p7613
tp7614
a(I3807
Vqualified
p7615
tp7616
a(I3808
Vpredicted
p7617
tp7618
a(I3809
Vdonations
p7619
tp7620
a(I3810
Vpremature
p7621
tp7622
a(I3811
Vapologize
p7623
tp7624
a(I3812
Valexander
p7625
tp7626
a(I3813
Vcardstock
p7627
tp7628
a(I3814
Voperation
p7629
tp7630
a(I3815
Vprevented
p7631
tp7632
a(I3816
Vconfident
p7633
tp7634
a(I3817
Vtoothpick
p7635
tp7636
a(I3818
Vviolation
p7637
tp7638
a(I3819
Vpromoting
p7639
tp7640
a(I3820
Vsurcharge
p7641
tp7642
a(I3821
Vtreasurer
p7643
tp7644
a(I3822
Vsentences
p7645
tp7646
a(I3823
Vdisturbed
p7647
tp7648
a(I3824
Vframework
p7649
tp7650
a(I3825
Vconflicts
p7651
tp7652
a(I3826
Vfirehouse
p7653
tp7654
a(I3827
Vallergies
p7655
tp7656
a(I3828
Vintention
p7657
tp7658
a(I3829
Vprobation
p7659
tp7660
a(I3830
Vchampions
p7661
tp7662
a(I3831
Vperennial
p7663
tp7664
a(I3832
Vlanguages
p7665
tp7666
a(I3833
Vmicrosoft
p7667
tp7668
a(I3834
Vcenturies
p7669
tp7670
a(I3835
Vvoicemail
p7671
tp7672
a(I3836
Vcountless
p7673
tp7674
a(I3837
Vturnovers
p7675
tp7676
a(I3838
Vtherefore
p7677
tp7678
a(I3839
Vradiation
p7679
tp7680
a(I3840
Vorganized
p7681
tp7682
a(I3841
Vhistorian
p7683
tp7684
a(I3842
Vdisclosed
p7685
tp7686
a(I3843
Vlaunching
p7687
tp7688
a(I3844
Vaspergers
p7689
tp7690
a(I3845
Vrochester
p7691
tp7692
a(I3846
Vdeveloper
p7693
tp7694
a(I3847
Voversight
p7695
tp7696
a(I3848
Vtrademark
p7697
tp7698
a(I3849
Vstreaming
p7699
tp7700
a(I3850
Vimpressed
p7701
tp7702
a(I3851
Vamusement
p7703
tp7704
a(I3852
Vownership
p7705
tp7706
a(I3853
Vestimates
p7707
tp7708
a(I3854
Vsupported
p7709
tp7710
a(I3855
Vdelivered
p7711
tp7712
a(I3856
Vdiscounts
p7713
tp7714
a(I3857
Vstationed
p7715
tp7716
a(I3858
Vsweetness
p7717
tp7718
a(I3859
Vdisorders
p7719
tp7720
a(I3860
Vvictorian
p7721
tp7722
a(I3861
Veverthing
p7723
tp7724
a(I3862
Vlouisiana
p7725
tp7726
a(I3863
Vwatershed
p7727
tp7728
a(I3864
Vmunicipal
p7729
tp7730
a(I3865
Vversatile
p7731
tp7732
a(I3866
Vcigarette
p7733
tp7734
a(I3867
Vpinterest
p7735
tp7736
a(I3868
Vunnatural
p7737
tp7738
a(I3869
Vproposals
p7739
tp7740
a(I3870
Vterrorist
p7741
tp7742
a(I3871
Vclassical
p7743
tp7744
a(I3872
Vdirecting
p7745
tp7746
a(I3873
Vtherapist
p7747
tp7748
a(I3874
Vmarinated
p7749
tp7750
a(I3875
Vinterfere
p7751
tp7752
a(I3876
Vcarpenter
p7753
tp7754
a(I3877
Vaccepting
p7755
tp7756
a(I3878
Voregonian
p7757
tp7758
a(I3879
Vinclusion
p7759
tp7760
a(I3880
Vcontreras
p7761
tp7762
a(I3881
Voffseason
p7763
tp7764
a(I3882
Vnicknames
p7765
tp7766
a(I3883
Vrestraint
p7767
tp7768
a(I3884
Vblindness
p7769
tp7770
a(I3885
Vattacking
p7771
tp7772
a(I3886
Vabilities
p7773
tp7774
a(I3887
Vamendment
p7775
tp7776
a(I3888
Vskeptical
p7777
tp7778
a(I3889
Vshootings
p7779
tp7780
a(I3890
Vharvested
p7781
tp7782
a(I3891
Vreviewers
p7783
tp7784
a(I3892
Vsignature
p7785
tp7786
a(I3893
Vordinance
p7787
tp7788
a(I3894
Vbehaviour
p7789
tp7790
a(I3895
Vfeliciano
p7791
tp7792
a(I3896
Vupgrading
p7793
tp7794
a(I3897
Vterminate
p7795
tp7796
a(I3898
Ventourage
p7797
tp7798
a(I3899
Veconomist
p7799
tp7800
a(I3900
Voperators
p7801
tp7802
a(I3901
Vfrivolous
p7803
tp7804
a(I3902
Vsuspended
p7805
tp7806
a(I3903
Vawareness
p7807
tp7808
a(I3904
Vdismissed
p7809
tp7810
a(I3905
Vwholesale
p7811
tp7812
a(I3906
Vbandwidth
p7813
tp7814
a(I3907
Vworldwide
p7815
tp7816
a(I3908
Vbrightest
p7817
tp7818
a(I3909
Vrequiring
p7819
tp7820
a(I3910
Vbungalows
p7821
tp7822
a(I3911
Vathletics
p7823
tp7824
a(I3912
Vhurricane
p7825
tp7826
a(I3913
Vpatchwork
p7827
tp7828
a(I3914
Vcommuters
p7829
tp7830
a(I3915
Vpassenger
p7831
tp7832
a(I3916
Vadventure
p7833
tp7834
a(I3917
Vcharlotte
p7835
tp7836
a(I3918
Vsunscreen
p7837
tp7838
a(I3919
Vborrowing
p7839
tp7840
a(I3920
Vauthentic
p7841
tp7842
a(I3921
Vabandoned
p7843
tp7844
a(I3922
Vindicates
p7845
tp7846
a(I3923
Vreviewing
p7847
tp7848
a(I3924
Vfernandez
p7849
tp7850
a(I3925
Vgrizzlies
p7851
tp7852
a(I3926
Vhunterdon
p7853
tp7854
a(I3927
Vspecifics
p7855
tp7856
a(I3928
Vsleepless
p7857
tp7858
a(I3929
Vconsensus
p7859
tp7860
a(I3930
Vinstagram
p7861
tp7862
a(I3931
Vsurvivors
p7863
tp7864
a(I3932
Vrejecting
p7865
tp7866
a(I3933
Vstevenson
p7867
tp7868
a(I3934
Veditorial
p7869
tp7870
a(I3935
Vchickpeas
p7871
tp7872
a(I3936
Vpackaging
p7873
tp7874
a(I3937
Vsprawling
p7875
tp7876
a(I3938
Vchampagne
p7877
tp7878
a(I3939
Vstitching
p7879
tp7880
a(I3940
Vcommander
p7881
tp7882
a(I3941
Vmeatballs
p7883
tp7884
a(I3942
Vstrategic
p7885
tp7886
a(I3943
Vstrangers
p7887
tp7888
a(I3944
Vtriggered
p7889
tp7890
a(I3945
Vcitigroup
p7891
tp7892
a(I3946
Vgraduates
p7893
tp7894
a(I3947
Vcardboard
p7895
tp7896
a(I3948
Vprophetic
p7897
tp7898
a(I3949
Vdeferment
p7899
tp7900
a(I3950
Vgabrielle
p7901
tp7902
a(I3951
Vjustified
p7903
tp7904
a(I3952
Vplatforms
p7905
tp7906
a(I3953
Vgoverning
p7907
tp7908
a(I3954
Voverrated
p7909
tp7910
a(I3955
Vimpromptu
p7911
tp7912
a(I3956
Vleftovers
p7913
tp7914
a(I3957
Vextension
p7915
tp7916
a(I3958
Vcontained
p7917
tp7918
a(I3959
Vsanderson
p7919
tp7920
a(I3960
Velections
p7921
tp7922
a(I3961
Vlinebrink
p7923
tp7924
a(I3962
Vdetergent
p7925
tp7926
a(I3963
Vdesigning
p7927
tp7928
a(I3964
Vpaulsboro
p7929
tp7930
a(I3965
Vexpansion
p7931
tp7932
a(I3966
Vcavaliers
p7933
tp7934
a(I3967
Vsatisfied
p7935
tp7936
a(I3968
Vexecution
p7937
tp7938
a(I3969
Vreleasing
p7939
tp7940
a(I3970
Vattribute
p7941
tp7942
a(I3971
Vshortfall
p7943
tp7944
a(I3972
Vautomaker
p7945
tp7946
a(I3973
Vindicator
p7947
tp7948
a(I3974
Vcooperate
p7949
tp7950
a(I3975
Vstruggles
p7951
tp7952
a(I3976
Varchitect
p7953
tp7954
a(I3977
Vresistant
p7955
tp7956
a(I3978
Vpneumonia
p7957
tp7958
a(I3979
Vimpatient
p7959
tp7960
a(I3980
Vvegetable
p7961
tp7962
a(I3981
Vmcdonnell
p7963
tp7964
a(I3982
Vtentative
p7965
tp7966
a(I3983
Vcolleague
p7967
tp7968
a(I3984
Vnarrative
p7969
tp7970
a(I3985
Voccasions
p7971
tp7972
a(I3986
Vprofessor
p7973
tp7974
a(I3987
Vprivilege
p7975
tp7976
a(I3988
Vgardeners
p7977
tp7978
a(I3989
Vsarcastic
p7979
tp7980
a(I3990
Vdeserving
p7981
tp7982
a(I3991
Vreactions
p7983
tp7984
a(I3992
Vautomatic
p7985
tp7986
a(I3993
Vattackers
p7987
tp7988
a(I3994
Vappetizer
p7989
tp7990
a(I3995
Vscrubbing
p7991
tp7992
a(I3996
Vpleasures
p7993
tp7994
a(I3997
Vviolating
p7995
tp7996
a(I3998
Vcivilized
p7997
tp7998
a(I3999
Vnighttime
p7999
tp8000
a(I4000
Vexperience
p8001
tp8002
a(I4001
Vgovernment
p8003
tp8004
a(I4002
Vunderstand
p8005
tp8006
a(I4003
Vdepartment
p8007
tp8008
a(I4004
Vinterested
p8009
tp8010
a(I4005
Vconference
p8011
tp8012
a(I4006
Vcalifornia
p8013
tp8014
a(I4007
Vrestaurant
p8015
tp8016
a(I4008
Vwashington
p8017
tp8018
a(I4009
Vappreciate
p8019
tp8020
a(I4010
Vthemselves
p8021
tp8022
a(I4011
Vcharacters
p8023
tp8024
a(I4012
Vthroughout
p8025
tp8026
a(I4013
Vdifference
p8027
tp8028
a(I4014
Vrepublican
p8029
tp8030
a(I4015
Vsuccessful
p8031
tp8032
a(I4016
Vcollection
p8033
tp8034
a(I4017
Voperations
p8035
tp8036
a(I4018
Vcandidates
p8037
tp8038
a(I4019
Vindividual
p8039
tp8040
a(I4020
Vcommission
p8041
tp8042
a(I4021
Vmanagement
p8043
tp8044
a(I4022
Vprotection
p8045
tp8046
a(I4023
Vtelevision
p8047
tp8048
a(I4024
Vadditional
p8049
tp8050
a(I4025
Vimpossible
p8051
tp8052
a(I4026
Vconsidered
p8053
tp8054
a(I4027
Vproduction
p8055
tp8056
a(I4028
Vdemocratic
p8057
tp8058
a(I4029
Vbusinesses
p8059
tp8060
a(I4030
Vparticular
p8061
tp8062
a(I4031
Vdiscussion
p8063
tp8064
a(I4032
Vconnection
p8065
tp8066
a(I4033
Vbasketball
p8067
tp8068
a(I4034
Vstruggling
p8069
tp8070
a(I4035
Vscientists
p8071
tp8072
a(I4036
Vcommercial
p8073
tp8074
a(I4037
Vpopulation
p8075
tp8076
a(I4038
Vtournament
p8077
tp8078
a(I4039
Vbackground
p8079
tp8080
a(I4040
Vchallenges
p8081
tp8082
a(I4041
Vcelebrated
p8083
tp8084
a(I4042
Vactivities
p8085
tp8086
a(I4043
Vridiculous
p8087
tp8088
a(I4044
Vconfidence
p8089
tp8090
a(I4045
Vleadership
p8091
tp8092
a(I4046
Vincredible
p8093
tp8094
a(I4047
Vencouraged
p8095
tp8096
a(I4048
Vproductive
p8097
tp8098
a(I4049
Vconditions
p8099
tp8100
a(I4050
Vprotesters
p8101
tp8102
a(I4051
Vappearance
p8103
tp8104
a(I4052
Vretirement
p8105
tp8106
a(I4053
Vdiscovered
p8107
tp8108
a(I4054
Vrepresents
p8109
tp8110
a(I4055
Vpublishing
p8111
tp8112
a(I4056
Vtransition
p8113
tp8114
a(I4057
Vimmigrants
p8115
tp8116
a(I4058
Vsurrounded
p8117
tp8118
a(I4059
Vpurchasing
p8119
tp8120
a(I4060
Vaffordable
p8121
tp8122
a(I4061
Vexcitement
p8123
tp8124
a(I4062
Vagreements
p8125
tp8126
a(I4063
Vdetectives
p8127
tp8128
a(I4064
Vcorruption
p8129
tp8130
a(I4065
Vparliament
p8131
tp8132
a(I4066
Vexecutives
p8133
tp8134
a(I4067
Vimpressive
p8135
tp8136
a(I4068
Vcontribute
p8137
tp8138
a(I4069
Vcompromise
p8139
tp8140
a(I4070
Vtechniques
p8141
tp8142
a(I4071
Vrecruiting
p8143
tp8144
a(I4072
Vinvestment
p8145
tp8146
a(I4073
Vattendance
p8147
tp8148
a(I4074
Vconvention
p8149
tp8150
a(I4075
Vdiscussing
p8151
tp8152
a(I4076
Vcolleagues
p8153
tp8154
a(I4077
Vsupporting
p8155
tp8156
a(I4078
Vimportance
p8157
tp8158
a(I4079
Vmedication
p8159
tp8160
a(I4080
Vintroduced
p8161
tp8162
a(I4081
Vexpression
p8163
tp8164
a(I4082
Vpercentage
p8165
tp8166
a(I4083
Vindustrial
p8167
tp8168
a(I4084
Vfoundation
p8169
tp8170
a(I4085
Vpermission
p8171
tp8172
a(I4086
Vremarkable
p8173
tp8174
a(I4087
Vcollective
p8175
tp8176
a(I4088
Vhistorical
p8177
tp8178
a(I4089
Vpassengers
p8179
tp8180
a(I4090
Vnationwide
p8181
tp8182
a(I4091
Vcompassion
p8183
tp8184
a(I4092
Vhelicopter
p8185
tp8186
a(I4093
Vearthquake
p8187
tp8188
a(I4094
Vmotivation
p8189
tp8190
a(I4095
Vnomination
p8191
tp8192
a(I4096
Vboundaries
p8193
tp8194
a(I4097
Vregardless
p8195
tp8196
a(I4098
Vexhibition
p8197
tp8198
a(I4099
Vcollecting
p8199
tp8200
a(I4100
Vopposition
p8201
tp8202
a(I4101
Vinitiative
p8203
tp8204
a(I4102
Vhighlights
p8205
tp8206
a(I4103
Vrecognized
p8207
tp8208
a(I4104
Vdeveloping
p8209
tp8210
a(I4105
Vincreasing
p8211
tp8212
a(I4106
Velectronic
p8213
tp8214
a(I4107
Vreasonable
p8215
tp8216
a(I4108
Vdetermined
p8217
tp8218
a(I4109
Vviolations
p8219
tp8220
a(I4110
Vdefendants
p8221
tp8222
a(I4111
Vattractive
p8223
tp8224
a(I4112
Vstrengthen
p8225
tp8226
a(I4113
Vproperties
p8227
tp8228
a(I4114
Vdescribing
p8229
tp8230
a(I4115
Vgraduation
p8231
tp8232
a(I4116
Vlegitimate
p8233
tp8234
a(I4117
Vinnovation
p8235
tp8236
a(I4118
Vmisconduct
p8237
tp8238
a(I4119
Vinsightful
p8239
tp8240
a(I4120
Vchallenged
p8241
tp8242
a(I4121
Vperforming
p8243
tp8244
a(I4122
Vfacilities
p8245
tp8246
a(I4123
Vvulnerable
p8247
tp8248
a(I4124
Vvegetables
p8249
tp8250
a(I4125
Vcincinnati
p8251
tp8252
a(I4126
Vsoundtrack
p8253
tp8254
a(I4127
Vcommitment
p8255
tp8256
a(I4128
Videntified
p8257
tp8258
a(I4129
Vsufficient
p8259
tp8260
a(I4130
Vconsistent
p8261
tp8262
a(I4131
Vprotecting
p8263
tp8264
a(I4132
Vdepression
p8265
tp8266
a(I4133
Vscientific
p8267
tp8268
a(I4134
Veliminated
p8269
tp8270
a(I4135
Voccasional
p8271
tp8272
a(I4136
Vcontinuing
p8273
tp8274
a(I4137
Vsettlement
p8275
tp8276
a(I4138
Vphotograph
p8277
tp8278
a(I4139
Vprosecutor
p8279
tp8280
a(I4140
Vsupervisor
p8281
tp8282
a(I4141
Vattempting
p8283
tp8284
a(I4142
Vvolunteers
p8285
tp8286
a(I4143
Vorganizers
p8287
tp8288
a(I4144
Vanticipate
p8289
tp8290
a(I4145
Vcomponents
p8291
tp8292
a(I4146
Vreferences
p8293
tp8294
a(I4147
Vaccomplish
p8295
tp8296
a(I4148
Vassignment
p8297
tp8298
a(I4149
Vcriticized
p8299
tp8300
a(I4150
Vaustralian
p8301
tp8302
a(I4151
Vaggressive
p8303
tp8304
a(I4152
Vinfluenced
p8305
tp8306
a(I4153
Vprevention
p8307
tp8308
a(I4154
Vgeneration
p8309
tp8310
a(I4155
Vdelivering
p8311
tp8312
a(I4156
Vdedication
p8313
tp8314
a(I4157
Vsurprising
p8315
tp8316
a(I4158
Vassumption
p8317
tp8318
a(I4159
Vindustries
p8319
tp8320
a(I4160
Vturnaround
p8321
tp8322
a(I4161
Vhomeowners
p8323
tp8324
a(I4162
Vconviction
p8325
tp8326
a(I4163
Vgirlfriend
p8327
tp8328
a(I4164
Vrecovering
p8329
tp8330
a(I4165
Vcategories
p8331
tp8332
a(I4166
Vexplaining
p8333
tp8334
a(I4167
Vtablespoon
p8335
tp8336
a(I4168
Vpossession
p8337
tp8338
a(I4169
Vunderrated
p8339
tp8340
a(I4170
Vapartments
p8341
tp8342
a(I4171
Vdisclosure
p8343
tp8344
a(I4172
Vdisturbing
p8345
tp8346
a(I4173
Vexcellence
p8347
tp8348
a(I4174
Vintentions
p8349
tp8350
a(I4175
Vremembered
p8351
tp8352
a(I4176
Vliterature
p8353
tp8354
a(I4177
Vassociates
p8355
tp8356
a(I4178
Vsituations
p8357
tp8358
a(I4179
Vtendinitis
p8359
tp8360
a(I4180
Vcompliment
p8361
tp8362
a(I4181
Voptimistic
p8363
tp8364
a(I4182
Vconstitute
p8365
tp8366
a(I4183
Vdeductions
p8367
tp8368
a(I4184
Vsacramento
p8369
tp8370
a(I4185
Vmanuscript
p8371
tp8372
a(I4186
Vreferendum
p8373
tp8374
a(I4187
Vpunishment
p8375
tp8376
a(I4188
Vresponding
p8377
tp8378
a(I4189
Vregulation
p8379
tp8380
a(I4190
Vsuspension
p8381
tp8382
a(I4191
Vmonitoring
p8383
tp8384
a(I4192
Vreputation
p8385
tp8386
a(I4193
Vcompelling
p8387
tp8388
a(I4194
Vperformers
p8389
tp8390
a(I4195
Vmentioning
p8391
tp8392
a(I4196
Vmainstream
p8393
tp8394
a(I4197
Vchallenger
p8395
tp8396
a(I4198
Vcomplaints
p8397
tp8398
a(I4199
Vlitigation
p8399
tp8400
a(I4200
Vprovisions
p8401
tp8402
a(I4201
Vstatements
p8403
tp8404
a(I4202
Vfriendship
p8405
tp8406
a(I4203
Vcontrolled
p8407
tp8408
a(I4204
Vsupporters
p8409
tp8410
a(I4205
Vdevelopers
p8411
tp8412
a(I4206
Vattraction
p8413
tp8414
a(I4207
Vobligation
p8415
tp8416
a(I4208
Vcompleting
p8417
tp8418
a(I4209
Vdiscipline
p8419
tp8420
a(I4210
Vfulfilling
p8421
tp8422
a(I4211
Vprovidence
p8423
tp8424
a(I4212
Vautomotive
p8425
tp8426
a(I4213
Vnewspapers
p8427
tp8428
a(I4214
Vdocumented
p8429
tp8430
a(I4215
Vsandwiches
p8431
tp8432
a(I4216
Vassessment
p8433
tp8434
a(I4217
Vdisservice
p8435
tp8436
a(I4218
Vsocialized
p8437
tp8438
a(I4219
Vdisgusting
p8439
tp8440
a(I4220
Vprincipals
p8441
tp8442
a(I4221
Vcalculated
p8443
tp8444
a(I4222
Vcongestion
p8445
tp8446
a(I4223
Vgeographic
p8447
tp8448
a(I4224
Vcraigslist
p8449
tp8450
a(I4225
Vaccessible
p8451
tp8452
a(I4226
Vhuntington
p8453
tp8454
a(I4227
Voutpouring
p8455
tp8456
a(I4228
Voccupation
p8457
tp8458
a(I4229
Vinevitable
p8459
tp8460
a(I4230
Vnewsletter
p8461
tp8462
a(I4231
Vquestioned
p8463
tp8464
a(I4232
Vcomparable
p8465
tp8466
a(I4233
Vpriorities
p8467
tp8468
a(I4234
Vinvitation
p8469
tp8470
a(I4235
Vrevitalize
p8471
tp8472
a(I4236
Vstatistics
p8473
tp8474
a(I4237
Vlighthouse
p8475
tp8476
a(I4238
Vprofitable
p8477
tp8478
a(I4239
Vaffiliated
p8479
tp8480
a(I4240
Vcontractor
p8481
tp8482
a(I4241
Vlouisville
p8483
tp8484
a(I4242
Vcommittees
p8485
tp8486
a(I4243
Vtreatments
p8487
tp8488
a(I4244
Vendangered
p8489
tp8490
a(I4245
Vprediction
p8491
tp8492
a(I4246
Vrehearsals
p8493
tp8494
a(I4247
Vfunctional
p8495
tp8496
a(I4248
Vmicrophone
p8497
tp8498
a(I4249
Vsupportive
p8499
tp8500
a(I4250
Vharassment
p8501
tp8502
a(I4251
Voutrageous
p8503
tp8504
a(I4252
Vrepression
p8505
tp8506
a(I4253
Vimpression
p8507
tp8508
a(I4254
Vadminister
p8509
tp8510
a(I4255
Vlieutenant
p8511
tp8512
a(I4256
Vinfluences
p8513
tp8514
a(I4257
Vregistered
p8515
tp8516
a(I4258
Vauthorized
p8517
tp8518
a(I4259
Vmilliliter
p8519
tp8520
a(I4260
Vbroadcasts
p8521
tp8522
a(I4261
Vcounseling
p8523
tp8524
a(I4262
Vprocessing
p8525
tp8526
a(I4263
Vprivileged
p8527
tp8528
a(I4264
Vrefreshing
p8529
tp8530
a(I4265
Vpreferable
p8531
tp8532
a(I4266
Vfrustrated
p8533
tp8534
a(I4267
Vfrustrates
p8535
tp8536
a(I4268
Valtogether
p8537
tp8538
a(I4269
Vgenerating
p8539
tp8540
a(I4270
Vfellowship
p8541
tp8542
a(I4271
Vfundraiser
p8543
tp8544
a(I4272
Vpersistent
p8545
tp8546
a(I4273
Vreflecting
p8547
tp8548
a(I4274
Vvalidation
p8549
tp8550
a(I4275
Vwilderness
p8551
tp8552
a(I4276
Vprohibited
p8553
tp8554
a(I4277
Vinstructor
p8555
tp8556
a(I4278
Vcontroller
p8557
tp8558
a(I4279
Vprofession
p8559
tp8560
a(I4280
Vamendments
p8561
tp8562
a(I4281
Vblackhawks
p8563
tp8564
a(I4282
Vfitzgerald
p8565
tp8566
a(I4283
Vwillamette
p8567
tp8568
a(I4284
Vtouchdowns
p8569
tp8570
a(I4285
Vsweatpants
p8571
tp8572
a(I4286
Vsweatshirt
p8573
tp8574
a(I4287
Vphenomenal
p8575
tp8576
a(I4288
Vassociated
p8577
tp8578
a(I4289
Vtravelling
p8579
tp8580
a(I4290
Vwolverines
p8581
tp8582
a(I4291
Vsignatures
p8583
tp8584
a(I4292
Vreflection
p8585
tp8586
a(I4293
Veconomists
p8587
tp8588
a(I4294
Vthreatened
p8589
tp8590
a(I4295
Vevacuation
p8591
tp8592
a(I4296
Vpropaganda
p8593
tp8594
a(I4297
Villiterate
p8595
tp8596
a(I4298
Vconcerning
p8597
tp8598
a(I4299
Vcouncilman
p8599
tp8600
a(I4300
Vinteresting
p8601
tp8602
a(I4301
Vinformation
p8603
tp8604
a(I4302
Vrepublicans
p8605
tp8606
a(I4303
Vperformance
p8607
tp8608
a(I4304
Vassociation
p8609
tp8610
a(I4305
Vdevelopment
p8611
tp8612
a(I4306
Vcompetition
p8613
tp8614
a(I4307
Vtraditional
p8615
tp8616
a(I4308
Vlegislation
p8617
tp8618
a(I4309
Vresponsible
p8619
tp8620
a(I4310
Vconsidering
p8621
tp8622
a(I4311
Vauthorities
p8623
tp8624
a(I4312
Vsignificant
p8625
tp8626
a(I4313
Vcomfortable
p8627
tp8628
a(I4314
Vcombination
p8629
tp8630
a(I4315
Vcomplaining
p8631
tp8632
a(I4316
Vrestaurants
p8633
tp8634
a(I4317
Vquarterback
p8635
tp8636
a(I4318
Vinspiration
p8637
tp8638
a(I4319
Vestablished
p8639
tp8640
a(I4320
Vparticipate
p8641
tp8642
a(I4321
Vprosecutors
p8643
tp8644
a(I4322
Vgovernments
p8645
tp8646
a(I4323
Vcontributed
p8647
tp8648
a(I4324
Vlegislature
p8649
tp8650
a(I4325
Vcommunities
p8651
tp8652
a(I4326
Vpoliticians
p8653
tp8654
a(I4327
Vindependent
p8655
tp8656
a(I4328
Venforcement
p8657
tp8658
a(I4329
Vachievement
p8659
tp8660
a(I4330
Vcelebrating
p8661
tp8662
a(I4331
Vlegislative
p8663
tp8664
a(I4332
Vphotographs
p8665
tp8666
a(I4333
Voutstanding
p8667
tp8668
a(I4334
Vexperiences
p8669
tp8670
a(I4335
Valternative
p8671
tp8672
a(I4336
Vappointment
p8673
tp8674
a(I4337
Vrepresented
p8675
tp8676
a(I4338
Vunderground
p8677
tp8678
a(I4339
Vsuggestions
p8679
tp8680
a(I4340
Vfrustrating
p8681
tp8682
a(I4341
Vexperienced
p8683
tp8684
a(I4342
Vimmigration
p8685
tp8686
a(I4343
Vresearchers
p8687
tp8688
a(I4344
Vrecommended
p8689
tp8690
a(I4345
Vconnections
p8691
tp8692
a(I4346
Vinstitution
p8693
tp8694
a(I4347
Vcelebration
p8695
tp8696
a(I4348
Vimprovement
p8697
tp8698
a(I4349
Vintelligent
p8699
tp8700
a(I4350
Vcollections
p8701
tp8702
a(I4351
Vafghanistan
p8703
tp8704
a(I4352
Vchallenging
p8705
tp8706
a(I4353
Vtemperature
p8707
tp8708
a(I4354
Vcompetitive
p8709
tp8710
a(I4355
Vperspective
p8711
tp8712
a(I4356
Vspokeswoman
p8713
tp8714
a(I4357
Vdescription
p8715
tp8716
a(I4358
Vprospective
p8717
tp8718
a(I4359
Vmaintenance
p8719
tp8720
a(I4360
Vthreatening
p8721
tp8722
a(I4361
Vconsecutive
p8723
tp8724
a(I4362
Vdistinction
p8725
tp8726
a(I4363
Vrequirement
p8727
tp8728
a(I4364
Ventertained
p8729
tp8730
a(I4365
Vdepartments
p8731
tp8732
a(I4366
Vdisappeared
p8733
tp8734
a(I4367
Vallegations
p8735
tp8736
a(I4368
Vfascinating
p8737
tp8738
a(I4369
Venvironment
p8739
tp8740
a(I4370
Vimagination
p8741
tp8742
a(I4371
Vcommitments
p8743
tp8744
a(I4372
Vaccountable
p8745
tp8746
a(I4373
Vdestruction
p8747
tp8748
a(I4374
Vincorporate
p8749
tp8750
a(I4375
Vregulations
p8751
tp8752
a(I4376
Vspecializes
p8753
tp8754
a(I4377
Vingredients
p8755
tp8756
a(I4378
Vtablespoons
p8757
tp8758
a(I4379
Voverwhelmed
p8759
tp8760
a(I4380
Vproposition
p8761
tp8762
a(I4381
Vcertificate
p8763
tp8764
a(I4382
Vbillionaire
p8765
tp8766
a(I4383
Vsightseeing
p8767
tp8768
a(I4384
Vinstructors
p8769
tp8770
a(I4385
Vunschooling
p8771
tp8772
a(I4386
Vindividuals
p8773
tp8774
a(I4387
Vreplacement
p8775
tp8776
a(I4388
Vdiscussions
p8777
tp8778
a(I4389
Vapplication
p8779
tp8780
a(I4390
Vtransformed
p8781
tp8782
a(I4391
Vconferences
p8783
tp8784
a(I4392
Vconstraints
p8785
tp8786
a(I4393
Veliminating
p8787
tp8788
a(I4394
Vrecognition
p8789
tp8790
a(I4395
Vdevastation
p8791
tp8792
a(I4396
Vminneapolis
p8793
tp8794
a(I4397
Vrestoration
p8795
tp8796
a(I4398
Vfundraising
p8797
tp8798
a(I4399
Vdevastating
p8799
tp8800
a(I4400
Vdistinguish
p8801
tp8802
a(I4401
Vgrandmother
p8803
tp8804
a(I4402
Vinstruction
p8805
tp8806
a(I4403
Vcommunicate
p8807
tp8808
a(I4404
Vcorrections
p8809
tp8810
a(I4405
Vscholarship
p8811
tp8812
a(I4406
Vtransmitted
p8813
tp8814
a(I4407
Vdemonstrate
p8815
tp8816
a(I4408
Vneighboring
p8817
tp8818
a(I4409
Vgrandfather
p8819
tp8820
a(I4410
Vdesperation
p8821
tp8822
a(I4411
Vinvolvement
p8823
tp8824
a(I4412
Vinteractive
p8825
tp8826
a(I4413
Vcontractors
p8827
tp8828
a(I4414
Vinteraction
p8829
tp8830
a(I4415
Vmississippi
p8831
tp8832
a(I4416
Vdisciplined
p8833
tp8834
a(I4417
Vfundamental
p8835
tp8836
a(I4418
Vmedications
p8837
tp8838
a(I4419
Vobscenities
p8839
tp8840
a(I4420
Velectronics
p8841
tp8842
a(I4421
Vcampaigning
p8843
tp8844
a(I4422
Vdiscoveries
p8845
tp8846
a(I4423
Vwatercolour
p8847
tp8848
a(I4424
Vunderstands
p8849
tp8850
a(I4425
Vconfiscated
p8851
tp8852
a(I4426
Vaccompanied
p8853
tp8854
a(I4427
Vinventoried
p8855
tp8856
a(I4428
Vconditional
p8857
tp8858
a(I4429
Vembarrassed
p8859
tp8860
a(I4430
Vsupervisors
p8861
tp8862
a(I4431
Vconclusions
p8863
tp8864
a(I4432
Vsupervising
p8865
tp8866
a(I4433
Vforeclosure
p8867
tp8868
a(I4434
Vpretentious
p8869
tp8870
a(I4435
Vprohibition
p8871
tp8872
a(I4436
Vsupplements
p8873
tp8874
a(I4437
Vnieuwenhuis
p8875
tp8876
a(I4438
Vfellowships
p8877
tp8878
a(I4439
Vpartnership
p8879
tp8880
a(I4440
Vcleanliness
p8881
tp8882
a(I4441
Vfantastical
p8883
tp8884
a(I4442
Vconsequence
p8885
tp8886
a(I4443
Vconnotation
p8887
tp8888
a(I4444
Vbusinessman
p8889
tp8890
a(I4445
Vresemblance
p8891
tp8892
a(I4446
Vacknowledge
p8893
tp8894
a(I4447
Vdisgruntled
p8895
tp8896
a(I4448
Vterritorial
p8897
tp8898
a(I4449
Vinterviewer
p8899
tp8900
a(I4450
Venthusiasts
p8901
tp8902
a(I4451
Vinterviewed
p8903
tp8904
a(I4452
Vreconnected
p8905
tp8906
a(I4453
Vgenerations
p8907
tp8908
a(I4454
Vrenovations
p8909
tp8910
a(I4455
Vstrengthens
p8911
tp8912
a(I4456
Vbackgrounds
p8913
tp8914
a(I4457
Vpreferences
p8915
tp8916
a(I4458
Valtercation
p8917
tp8918
a(I4459
Vstimulating
p8919
tp8920
a(I4460
Vunavailable
p8921
tp8922
a(I4461
Vnominations
p8923
tp8924
a(I4462
Vsmartphones
p8925
tp8926
a(I4463
Vfrustration
p8927
tp8928
a(I4464
Vappreciated
p8929
tp8930
a(I4465
Vcoordinator
p8931
tp8932
a(I4466
Vunfortunate
p8933
tp8934
a(I4467
Vpreparation
p8935
tp8936
a(I4468
Vappearances
p8937
tp8938
a(I4469
Vpublication
p8939
tp8940
a(I4470
Vadvertisers
p8941
tp8942
a(I4471
Vspectacular
p8943
tp8944
a(I4472
Vinterpreted
p8945
tp8946
a(I4473
Vcompetitors
p8947
tp8948
a(I4474
Vencountered
p8949
tp8950
a(I4475
Vcontrolling
p8951
tp8952
a(I4476
Vbutterflies
p8953
tp8954
a(I4477
Vdistributor
p8955
tp8956
a(I4478
Vconcussions
p8957
tp8958
a(I4479
Vassignments
p8959
tp8960
a(I4480
Vnationalist
p8961
tp8962
a(I4481
Vappropriate
p8963
tp8964
a(I4482
Vcelebrities
p8965
tp8966
a(I4483
Vsurrendered
p8967
tp8968
a(I4484
Vresurrected
p8969
tp8970
a(I4485
Vdistributed
p8971
tp8972
a(I4486
Vaccessories
p8973
tp8974
a(I4487
Vfriendships
p8975
tp8976
a(I4488
Vdifferences
p8977
tp8978
a(I4489
Vtranslation
p8979
tp8980
a(I4490
Vsupermarket
p8981
tp8982
a(I4491
Vengineering
p8983
tp8984
a(I4492
Vamazingness
p8985
tp8986
a(I4493
Vconvictions
p8987
tp8988
a(I4494
Vsubstantial
p8989
tp8990
a(I4495
Vdestination
p8991
tp8992
a(I4496
Vreinsurance
p8993
tp8994
a(I4497
Vadjustments
p8995
tp8996
a(I4498
Vcooperation
p8997
tp8998
a(I4499
Voverlooking
p8999
tp9000
a(I4500
Vcorporation
p9001
tp9002
a(I4501
Vagriculture
p9003
tp9004
a(I4502
Vrestitution
p9005
tp9006
a(I4503
Vjournalists
p9007
tp9008
a(I4504
Vapproaching
p9009
tp9010
a(I4505
Vcommercials
p9011
tp9012
a(I4506
Vcardholders
p9013
tp9014
a(I4507
Vinnovations
p9015
tp9016
a(I4508
Vforgiveness
p9017
tp9018
a(I4509
Vcomplicated
p9019
tp9020
a(I4510
Vcomparisons
p9021
tp9022
a(I4511
Vvegetarians
p9023
tp9024
a(I4512
Vreservation
p9025
tp9026
a(I4513
Veducational
p9027
tp9028
a(I4514
Vinstruments
p9029
tp9030
a(I4515
Vmaintaining
p9031
tp9032
a(I4516
Vfinkelstein
p9033
tp9034
a(I4517
Vdeteriorate
p9035
tp9036
a(I4518
Vunderfunded
p9037
tp9038
a(I4519
Vmountainous
p9039
tp9040
a(I4520
Vmotorsports
p9041
tp9042
a(I4521
Vdissipation
p9043
tp9044
a(I4522
Vtransformer
p9045
tp9046
a(I4523
Vterritories
p9047
tp9048
a(I4524
Vshopkeepers
p9049
tp9050
a(I4525
Vinvestments
p9051
tp9052
a(I4526
Vbackpacking
p9053
tp9054
a(I4527
Vcheerleader
p9055
tp9056
a(I4528
Vstatistical
p9057
tp9058
a(I4529
Vculmination
p9059
tp9060
a(I4530
Vprojections
p9061
tp9062
a(I4531
Vaccelerated
p9063
tp9064
a(I4532
Varticulates
p9065
tp9066
a(I4533
Vdiversified
p9067
tp9068
a(I4534
Vrationalize
p9069
tp9070
a(I4535
Vtransferred
p9071
tp9072
a(I4536
Vdecorations
p9073
tp9074
a(I4537
Vgingerbread
p9075
tp9076
a(I4538
Vexplanation
p9077
tp9078
a(I4539
Vhollandaise
p9079
tp9080
a(I4540
Vprohibitive
p9081
tp9082
a(I4541
Vencampments
p9083
tp9084
a(I4542
Vcommonplace
p9085
tp9086
a(I4543
Vimpractical
p9087
tp9088
a(I4544
Voutsourcing
p9089
tp9090
a(I4545
Vdirectioner
p9091
tp9092
a(I4546
Vsteakhouses
p9093
tp9094
a(I4547
Vsilhouettes
p9095
tp9096
a(I4548
Vcheesecloth
p9097
tp9098
a(I4549
Vsponsorship
p9099
tp9100
a(I4550
Vmisdemeanor
p9101
tp9102
a(I4551
Vopportunist
p9103
tp9104
a(I4552
Vacupressure
p9105
tp9106
a(I4553
Vreadmission
p9107
tp9108
a(I4554
Vsketchbooks
p9109
tp9110
a(I4555
Vineffective
p9111
tp9112
a(I4556
Vpowerpoints
p9113
tp9114
a(I4557
Vmoisturized
p9115
tp9116
a(I4558
Vcontemplate
p9117
tp9118
a(I4559
Vhelicarrier
p9119
tp9120
a(I4560
Vtobacconist
p9121
tp9122
a(I4561
Vtrollbloods
p9123
tp9124
a(I4562
Vincremental
p9125
tp9126
a(I4563
Vunsolicited
p9127
tp9128
a(I4564
Velimination
p9129
tp9130
a(I4565
Vlinebackers
p9131
tp9132
a(I4566
Vbootleggers
p9133
tp9134
a(I4567
Vspringboard
p9135
tp9136
a(I4568
Vaccumulated
p9137
tp9138
a(I4569
Vreplaceable
p9139
tp9140
a(I4570
Vshenanigans
p9141
tp9142
a(I4571
Vencroaching
p9143
tp9144
a(I4572
Vdowntrodden
p9145
tp9146
a(I4573
Vmoviemaking
p9147
tp9148
a(I4574
Vconcentrate
p9149
tp9150
a(I4575
Vbullshittin
p9151
tp9152
a(I4576
Vtestimonial
p9153
tp9154
a(I4577
Vprovocation
p9155
tp9156
a(I4578
Vspecialties
p9157
tp9158
a(I4579
Vreprimanded
p9159
tp9160
a(I4580
Vcommemorate
p9161
tp9162
a(I4581
Vspringsteen
p9163
tp9164
a(I4582
Vunexplained
p9165
tp9166
a(I4583
Vinterfering
p9167
tp9168
a(I4584
Vmemberships
p9169
tp9170
a(I4585
Vpredictable
p9171
tp9172
a(I4586
Vwillingness
p9173
tp9174
a(I4587
Vimplemented
p9175
tp9176
a(I4588
Vreinstating
p9177
tp9178
a(I4589
Vstrategists
p9179
tp9180
a(I4590
Vtantalizing
p9181
tp9182
a(I4591
Vvaccination
p9183
tp9184
a(I4592
Vrespectable
p9185
tp9186
a(I4593
Vhighschools
p9187
tp9188
a(I4594
Vgroundwater
p9189
tp9190
a(I4595
Vfestivities
p9191
tp9192
a(I4596
Vtransgender
p9193
tp9194
a(I4597
Vpopulations
p9195
tp9196
a(I4598
Vunprotected
p9197
tp9198
a(I4599
Vbuttfucking
p9199
tp9200
a(I4600
Vrelationship
p9201
tp9202
a(I4601
Vorganization
p9203
tp9204
a(I4602
Vchampionship
p9205
tp9206
a(I4603
Vconversation
p9207
tp9208
a(I4604
Vneighborhood
p9209
tp9210
a(I4605
Vconstruction
p9211
tp9212
a(I4606
Vconservative
p9213
tp9214
a(I4607
Vexpectations
p9215
tp9216
a(I4608
Vindependence
p9217
tp9218
a(I4609
Vfirefighters
p9219
tp9220
a(I4610
Vanticipation
p9221
tp9222
a(I4611
Vprofessional
p9223
tp9224
a(I4612
Vthanksgiving
p9225
tp9226
a(I4613
Vphiladelphia
p9227
tp9228
a(I4614
Vaccomplished
p9229
tp9230
a(I4615
Vregistration
p9231
tp9232
a(I4616
Vheadquarters
p9233
tp9234
a(I4617
Vrequirements
p9235
tp9236
a(I4618
Varrangements
p9237
tp9238
a(I4619
Vinfringement
p9239
tp9240
a(I4620
Vappreciation
p9241
tp9242
a(I4621
Vdisabilities
p9243
tp9244
a(I4622
Vcontribution
p9245
tp9246
a(I4623
Vimprovements
p9247
tp9248
a(I4624
Vpresentation
p9249
tp9250
a(I4625
Vperformances
p9251
tp9252
a(I4626
Vcommissioner
p9253
tp9254
a(I4627
Vpresidential
p9255
tp9256
a(I4628
Ventertaining
p9257
tp9258
a(I4629
Vparticipated
p9259
tp9260
a(I4630
Vintersection
p9261
tp9262
a(I4631
Vquarterbacks
p9263
tp9264
a(I4632
Vunreasonable
p9265
tp9266
a(I4633
Vrepresenting
p9267
tp9268
a(I4634
Vdistribution
p9269
tp9270
a(I4635
Vhumanitarian
p9271
tp9272
a(I4636
Vembarrassing
p9273
tp9274
a(I4637
Vannouncement
p9275
tp9276
a(I4638
Vapplications
p9277
tp9278
a(I4639
Vgrandparents
p9279
tp9280
a(I4640
Vacknowledges
p9281
tp9282
a(I4641
Vuniversities
p9283
tp9284
a(I4642
Vsubcommittee
p9285
tp9286
a(I4643
Vstrawberries
p9287
tp9288
a(I4644
Vtemperatures
p9289
tp9290
a(I4645
Vunattractive
p9291
tp9292
a(I4646
Vconstitution
p9293
tp9294
a(I4647
Vparticipants
p9295
tp9296
a(I4648
Vnegotiations
p9297
tp9298
a(I4649
Vintelligence
p9299
tp9300
a(I4650
Vadministered
p9301
tp9302
a(I4651
Vcivilization
p9303
tp9304
a(I4652
Vintermission
p9305
tp9306
a(I4653
Vdevelopments
p9307
tp9308
a(I4654
Vconsultation
p9309
tp9310
a(I4655
Vcontractions
p9311
tp9312
a(I4656
Vbachelorette
p9313
tp9314
a(I4657
Vintervention
p9315
tp9316
a(I4658
Vagricultural
p9317
tp9318
a(I4659
Vconservation
p9319
tp9320
a(I4660
Vinvitational
p9321
tp9322
a(I4661
Vcorporations
p9323
tp9324
a(I4662
Vconventional
p9325
tp9326
a(I4663
Vintellectual
p9327
tp9328
a(I4664
Vunbelievable
p9329
tp9330
a(I4665
Vintroduction
p9331
tp9332
a(I4666
Vconsequences
p9333
tp9334
a(I4667
Vforeclosures
p9335
tp9336
a(I4668
Vkindergarten
p9337
tp9338
a(I4669
Vrestrictions
p9339
tp9340
a(I4670
Vinterference
p9341
tp9342
a(I4671
Vunacceptable
p9343
tp9344
a(I4672
Vinstructions
p9345
tp9346
a(I4673
Vconditioning
p9347
tp9348
a(I4674
Vincorporated
p9349
tp9350
a(I4675
Vdecluttering
p9351
tp9352
a(I4676
Vsurroundings
p9353
tp9354
a(I4677
Vintimidation
p9355
tp9356
a(I4678
Venvironments
p9357
tp9358
a(I4679
Vcounterparts
p9359
tp9360
a(I4680
Vdifficulties
p9361
tp9362
a(I4681
Vdispensaries
p9363
tp9364
a(I4682
Vspellbinders
p9365
tp9366
a(I4683
Vdemonstrated
p9367
tp9368
a(I4684
Vappointments
p9369
tp9370
a(I4685
Vinstallation
p9371
tp9372
a(I4686
Vprescription
p9373
tp9374
a(I4687
Vexperimented
p9375
tp9376
a(I4688
Varchitecture
p9377
tp9378
a(I4689
Vconfirmation
p9379
tp9380
a(I4690
Vmeasurements
p9381
tp9382
a(I4691
Vscholarships
p9383
tp9384
a(I4692
Vcongregation
p9385
tp9386
a(I4693
Villustration
p9387
tp9388
a(I4694
Vexperiencing
p9389
tp9390
a(I4695
Vindianapolis
p9391
tp9392
a(I4696
Vchesterfield
p9393
tp9394
a(I4697
Vphotographed
p9395
tp9396
a(I4698
Vphotographic
p9397
tp9398
a(I4699
Vthunderstorm
p9399
tp9400
a(I4700
Vconstituents
p9401
tp9402
a(I4701
Vrefrigerator
p9403
tp9404
a(I4702
Vsurveillance
p9405
tp9406
a(I4703
Ventanglement
p9407
tp9408
a(I4704
Valternatives
p9409
tp9410
a(I4705
Vcompensation
p9411
tp9412
a(I4706
Vpediatrician
p9413
tp9414
a(I4707
Vexperimental
p9415
tp9416
a(I4708
Vdisappointed
p9417
tp9418
a(I4709
Vphilosophies
p9419
tp9420
a(I4710
Vprostitution
p9421
tp9422
a(I4711
Vdeficiencies
p9423
tp9424
a(I4712
Vtechnologies
p9425
tp9426
a(I4713
Vamphitheater
p9427
tp9428
a(I4714
Vmanufactured
p9429
tp9430
a(I4715
Ventertainers
p9431
tp9432
a(I4716
Vphotographer
p9433
tp9434
a(I4717
Vunsubscribed
p9435
tp9436
a(I4718
Vdemonstrable
p9437
tp9438
a(I4719
Vinstrumental
p9439
tp9440
a(I4720
Vcardiologist
p9441
tp9442
a(I4721
Vmissionaries
p9443
tp9444
a(I4722
Vtransmission
p9445
tp9446
a(I4723
Vhomesickness
p9447
tp9448
a(I4724
Vfermentation
p9449
tp9450
a(I4725
Vdeliberative
p9451
tp9452
a(I4726
Vbantamweight
p9453
tp9454
a(I4727
Vreproductive
p9455
tp9456
a(I4728
Vsimilarities
p9457
tp9458
a(I4729
Vcontributing
p9459
tp9460
a(I4730
Vmisanthropic
p9461
tp9462
a(I4731
Vstrengthened
p9463
tp9464
a(I4732
Vmotivational
p9465
tp9466
a(I4733
Vtestimonials
p9467
tp9468
a(I4734
Vinequalities
p9469
tp9470
a(I4735
Vimaginations
p9471
tp9472
a(I4736
Vinterpreters
p9473
tp9474
a(I4737
Vbreakthrough
p9475
tp9476
a(I4738
Vfruitfulness
p9477
tp9478
a(I4739
Vkrishnamurti
p9479
tp9480
a(I4740
Vreplacements
p9481
tp9482
a(I4741
Vturbocharged
p9483
tp9484
a(I4742
Vwarrensville
p9485
tp9486
a(I4743
Vconcentrated
p9487
tp9488
a(I4744
Vexaggerating
p9489
tp9490
a(I4745
Vboilermakers
p9491
tp9492
a(I4746
Vreintroduced
p9493
tp9494
a(I4747
Vcancellation
p9495
tp9496
a(I4748
Vsignificance
p9497
tp9498
a(I4749
Vstandardized
p9499
tp9500
a(I4750
Vexpenditures
p9501
tp9502
a(I4751
Vpalestinians
p9503
tp9504
a(I4752
Vmasquerading
p9505
tp9506
a(I4753
Vdisqualified
p9507
tp9508
a(I4754
Vmonetization
p9509
tp9510
a(I4755
Vinconvenient
p9511
tp9512
a(I4756
Vimplications
p9513
tp9514
a(I4757
Vhospitalized
p9515
tp9516
a(I4758
Vdisagreement
p9517
tp9518
a(I4759
Vanticipating
p9519
tp9520
a(I4760
Vfreewheeling
p9521
tp9522
a(I4761
Vorchestrated
p9523
tp9524
a(I4762
Vhousehunting
p9525
tp9526
a(I4763
Vmodification
p9527
tp9528
a(I4764
Vkindergarden
p9529
tp9530
a(I4765
Vsanzenbacher
p9531
tp9532
a(I4766
Vdisintegrate
p9533
tp9534
a(I4767
Vsupercenters
p9535
tp9536
a(I4768
Vinvestigator
p9537
tp9538
a(I4769
Vchicharrones
p9539
tp9540
a(I4770
Vlamentations
p9541
tp9542
a(I4771
Vinterrupting
p9543
tp9544
a(I4772
Vintermarried
p9545
tp9546
a(I4773
Vbroadcasting
p9547
tp9548
a(I4774
Vdehumanizing
p9549
tp9550
a(I4775
Vexecutioners
p9551
tp9552
a(I4776
Vpreservation
p9553
tp9554
a(I4777
Vsociological
p9555
tp9556
a(I4778
Vnorthwestern
p9557
tp9558
a(I4779
Vcartersville
p9559
tp9560
a(I4780
Virresistible
p9561
tp9562
a(I4781
Vtroublemaker
p9563
tp9564
a(I4782
Vconsiderable
p9565
tp9566
a(I4783
Vbureaucratic
p9567
tp9568
a(I4784
Vtransporting
p9569
tp9570
a(I4785
Vdisadvantage
p9571
tp9572
a(I4786
Vapprehension
p9573
tp9574
a(I4787
Vosteoporosis
p9575
tp9576
a(I4788
Vacknowledged
p9577
tp9578
a(I4789
Vprioritizing
p9579
tp9580
a(I4790
Vdistributing
p9581
tp9582
a(I4791
Vclevelanders
p9583
tp9584
a(I4792
Vblackmailing
p9585
tp9586
a(I4793
Vnonexistence
p9587
tp9588
a(I4794
Vreverbnation
p9589
tp9590
a(I4795
Vepigrammatic
p9591
tp9592
a(I4796
Vundocumented
p9593
tp9594
a(I4797
Vpurification
p9595
tp9596
a(I4798
Vembezzlement
p9597
tp9598
a(I4799
Vprobationers
p9599
tp9600
a(I4800
Vwelleducator
p9601
tp9602
a(I4801
Vstrongsville
p9603
tp9604
a(I4802
Vinvestigated
p9605
tp9606
a(I4803
Vquestionable
p9607
tp9608
a(I4804
Ventrepreneur
p9609
tp9610
a(I4805
Vunsuspecting
p9611
tp9612
a(I4806
Vfrustrations
p9613
tp9614
a(I4807
Vorthodontics
p9615
tp9616
a(I4808
Vcohabitating
p9617
tp9618
a(I4809
Vtogetherness
p9619
tp9620
a(I4810
Vtransplanted
p9621
tp9622
a(I4811
Vtransformers
p9623
tp9624
a(I4812
Vsupervisions
p9625
tp9626
a(I4813
Vspeculations
p9627
tp9628
a(I4814
Vtwitterverse
p9629
tp9630
a(I4815
Vcommentators
p9631
tp9632
a(I4816
Vhighlighting
p9633
tp9634
a(I4817
Vencirclement
p9635
tp9636
a(I4818
Vunauthorized
p9637
tp9638
a(I4819
Vrediscovered
p9639
tp9640
a(I4820
Vacceleration
p9641
tp9642
a(I4821
Vnevertheless
p9643
tp9644
a(I4822
Vcircumstance
p9645
tp9646
a(I4823
Vrecommending
p9647
tp9648
a(I4824
Vsupercharged
p9649
tp9650
a(I4825
Vcompromising
p9651
tp9652
a(I4826
Voverreaching
p9653
tp9654
a(I4827
Valtercations
p9655
tp9656
a(I4828
Vnonbelievers
p9657
tp9658
a(I4829
Vassociations
p9659
tp9660
a(I4830
Vjacksonville
p9661
tp9662
a(I4831
Vconcentrates
p9663
tp9664
a(I4832
Vtransferring
p9665
tp9666
a(I4833
Varticulating
p9667
tp9668
a(I4834
Vvolunteering
p9669
tp9670
a(I4835
Vstakeholders
p9671
tp9672
a(I4836
Vscrutinising
p9673
tp9674
a(I4837
Vinterchanges
p9675
tp9676
a(I4838
Vcommencement
p9677
tp9678
a(I4839
Vperspectives
p9679
tp9680
a(I4840
Vdestinations
p9681
tp9682
a(I4841
Vhomelessness
p9683
tp9684
a(I4842
Vunflattering
p9685
tp9686
a(I4843
Vsupplemented
p9687
tp9688
a(I4844
Vmoisturizing
p9689
tp9690
a(I4845
Vresurrection
p9691
tp9692
a(I4846
Vmelodramatic
p9693
tp9694
a(I4847
Vfundamentals
p9695
tp9696
a(I4848
Vunderstiller
p9697
tp9698
a(I4849
Vdissapointed
p9699
tp9700
a(I4850
Vinvestigation
p9701
tp9702
a(I4851
Vinternational
p9703
tp9704
a(I4852
Vunderstanding
p9705
tp9706
a(I4853
Venvironmental
p9707
tp9708
a(I4854
Vcommunication
p9709
tp9710
a(I4855
Vopportunities
p9711
tp9712
a(I4856
Vorganizations
p9713
tp9714
a(I4857
Vunprecedented
p9715
tp9716
a(I4858
Vdisappointing
p9717
tp9718
a(I4859
Vphotographers
p9719
tp9720
a(I4860
Vcollaboration
p9721
tp9722
a(I4861
Vredistricting
p9723
tp9724
a(I4862
Vcircumstances
p9725
tp9726
a(I4863
Vencouragement
p9727
tp9728
a(I4864
Vconsciousness
p9729
tp9730
a(I4865
Vcongressional
p9731
tp9732
a(I4866
Vconversations
p9733
tp9734
a(I4867
Vinstitutional
p9735
tp9736
a(I4868
Vmassachusetts
p9737
tp9738
a(I4869
Vchampionships
p9739
tp9740
a(I4870
Vcomprehensive
p9741
tp9742
a(I4871
Vstrengthening
p9743
tp9744
a(I4872
Ventertainment
p9745
tp9746
a(I4873
Vinvestigating
p9747
tp9748
a(I4874
Vconservatives
p9749
tp9750
a(I4875
Vrelationships
p9751
tp9752
a(I4876
Vinvestigative
p9753
tp9754
a(I4877
Vcontroversial
p9755
tp9756
a(I4878
Vcommissioners
p9757
tp9758
a(I4879
Vdistinguished
p9759
tp9760
a(I4880
Vphilosophical
p9761
tp9762
a(I4881
Vcontributions
p9763
tp9764
a(I4882
Vdisappearance
p9765
tp9766
a(I4883
Vglobalization
p9767
tp9768
a(I4884
Vneighborhoods
p9769
tp9770
a(I4885
Ventrepreneurs
p9771
tp9772
a(I4886
Vpersonalities
p9773
tp9774
a(I4887
Vcollaborative
p9775
tp9776
a(I4888
Vmanufacturing
p9777
tp9778
a(I4889
Vintroductions
p9779
tp9780
a(I4890
Vinterpersonal
p9781
tp9782
a(I4891
Vgratification
p9783
tp9784
a(I4892
Vmonochromatic
p9785
tp9786
a(I4893
Vinterrogation
p9787
tp9788
a(I4894
Vinterceptions
p9789
tp9790
a(I4895
Vmisunderstood
p9791
tp9792
a(I4896
Vconsultations
p9793
tp9794
a(I4897
Vprescriptions
p9795
tp9796
a(I4898
Vredevelopment
p9797
tp9798
a(I4899
Vembarrassment
p9799
tp9800
a(I4900
Vconsideration
p9801
tp9802
a(I4901
Vuncomfortable
p9803
tp9804
a(I4902
Vadvertisement
p9805
tp9806
a(I4903
Vcertification
p9807
tp9808
a(I4904
Vcomprehension
p9809
tp9810
a(I4905
Vcontraception
p9811
tp9812
a(I4906
Vcompanionship
p9813
tp9814
a(I4907
Vdevelopmental
p9815
tp9816
a(I4908
Vparticipating
p9817
tp9818
a(I4909
Vdocumentaries
p9819
tp9820
a(I4910
Vdemonstration
p9821
tp9822
a(I4911
Vestablishment
p9823
tp9824
a(I4912
Veffectiveness
p9825
tp9826
a(I4913
Vnonperishable
p9827
tp9828
a(I4914
Vtwittercation
p9829
tp9830
a(I4915
Varchitectural
p9831
tp9832
a(I4916
Vrestructuring
p9833
tp9834
a(I4917
Vdeliciousness
p9835
tp9836
a(I4918
Vvanwasshenova
p9837
tp9838
a(I4919
Vprofessionals
p9839
tp9840
a(I4920
Vcommunicating
p9841
tp9842
a(I4921
Vconfrontation
p9843
tp9844
a(I4922
Vmessageboards
p9845
tp9846
a(I4923
Vdisintegrated
p9847
tp9848
a(I4924
Vhomeownership
p9849
tp9850
a(I4925
Vmechanization
p9851
tp9852
a(I4926
Vinvestigators
p9853
tp9854
a(I4927
Vunpredictable
p9855
tp9856
a(I4928
Vlibrarianship
p9857
tp9858
a(I4929
Vunwillingness
p9859
tp9860
a(I4930
Vmeteorologist
p9861
tp9862
a(I4931
Vcomplications
p9863
tp9864
a(I4932
Vconsolidation
p9865
tp9866
a(I4933
Vpresentations
p9867
tp9868
a(I4934
Vcongresswoman
p9869
tp9870
a(I4935
Vsocioeconomic
p9871
tp9872
a(I4936
Vrevolutionize
p9873
tp9874
a(I4937
Vproportionate
p9875
tp9876
a(I4938
Vorganisations
p9877
tp9878
a(I4939
Vdramatization
p9879
tp9880
a(I4940
Vmediterranean
p9881
tp9882
a(I4941
Vproliferation
p9883
tp9884
a(I4942
Vcontroversies
p9885
tp9886
a(I4943
Vcounteracting
p9887
tp9888
a(I4944
Vtechnological
p9889
tp9890
a(I4945
Vdisheartening
p9891
tp9892
a(I4946
Vreincarnation
p9893
tp9894
a(I4947
Vpossibilities
p9895
tp9896
a(I4948
Vunpretentious
p9897
tp9898
a(I4949
Vaccoutrements
p9899
tp9900
a(I4950
Vcampbellsport
p9901
tp9902
a(I4951
Vcorresponding
p9903
tp9904
a(I4952
Vtelemarketing
p9905
tp9906
a(I4953
Vextravaganzas
p9907
tp9908
a(I4954
Vcontradiction
p9909
tp9910
a(I4955
Vqualification
p9911
tp9912
a(I4956
Vsemiautomatic
p9913
tp9914
a(I4957
Vbibliographer
p9915
tp9916
a(I4958
Vgubernatorial
p9917
tp9918
a(I4959
Vadministrator
p9919
tp9920
a(I4960
Vunderreported
p9921
tp9922
a(I4961
Vinspirational
p9923
tp9924
a(I4962
Vpreoccupation
p9925
tp9926
a(I4963
Vacquaintances
p9927
tp9928
a(I4964
Vrealtionships
p9929
tp9930
a(I4965
Vtranscription
p9931
tp9932
a(I4966
Vcompensations
p9933
tp9934
a(I4967
Vventriloquist
p9935
tp9936
a(I4968
Vblaufrankisch
p9937
tp9938
a(I4969
Vexperimenting
p9939
tp9940
a(I4970
Vchoreographed
p9941
tp9942
a(I4971
Vunderachieved
p9943
tp9944
a(I4972
Vinstantaneous
p9945
tp9946
a(I4973
Vmathematician
p9947
tp9948
a(I4974
Vpractitioners
p9949
tp9950
a(I4975
Vdeconstructed
p9951
tp9952
a(I4976
Vfreeschooling
p9953
tp9954
a(I4977
Vconscientious
p9955
tp9956
a(I4978
Vcongratulated
p9957
tp9958
a(I4979
Vcontamination
p9959
tp9960
a(I4980
Vindiscretions
p9961
tp9962
a(I4981
Vtelectroscope
p9963
tp9964
a(I4982
Vcarthaginians
p9965
tp9966
a(I4983
Vinfringements
p9967
tp9968
a(I4984
Voverqualified
p9969
tp9970
a(I4985
Vdetermination
p9971
tp9972
a(I4986
Vcraftsmanship
p9973
tp9974
a(I4987
Vscreenwriting
p9975
tp9976
a(I4988
Vconstellation
p9977
tp9978
a(I4989
Vheadquartered
p9979
tp9980
a(I4990
Vconcentration
p9981
tp9982
a(I4991
Vsophisticated
p9983
tp9984
a(I4992
Vcompassionate
p9985
tp9986
a(I4993
Voverwintering
p9987
tp9988
a(I4994
Vdemonstrators
p9989
tp9990
a(I4995
Vbutterfingers
p9991
tp9992
a(I4996
Vinappropriate
p9993
tp9994
a(I4997
Vincorporating
p9995
tp9996
a(I4998
Vdisillusioned
p9997
tp9998
a(I4999
Vmulticultural
p9999
tp10000
a.